---
triple:          'arm64-apple-darwin'
binary-path:     main
relocations:
  - { offset: 0x7863, size: 0x8, addend: 0x0, symName: __ZStL8__ioinit, symObjAddr: 0x2F8C7, symBinAddr: 0x100018000, symSize: 0x0 }
  - { offset: 0x80E6, size: 0x8, addend: 0x0, symName: __ZSt7forwardIR8LocationEOT_RNSt16remove_referenceIS2_E4typeE, symObjAddr: 0x3600, symBinAddr: 0x10000739C, symSize: 0x14 }
  - { offset: 0x8116, size: 0x8, addend: 0x0, symName: __ZSt10_ConstructI8LocationJRKS0_EEvPT_DpOT0_, symObjAddr: 0x3584, symBinAddr: 0x100007320, symSize: 0x7C }
  - { offset: 0x8162, size: 0x8, addend: 0x0, symName: __ZNK9__gnu_cxx17__normal_iteratorIPK8LocationSt6vectorIS1_SaIS1_EEEdeEv, symObjAddr: 0x356C, symBinAddr: 0x100007308, symSize: 0x18 }
  - { offset: 0x818A, size: 0x8, addend: 0x0, symName: __ZN9__gnu_cxx17__normal_iteratorIPK8LocationSt6vectorIS1_SaIS1_EEEppEv, symObjAddr: 0x3544, symBinAddr: 0x1000072E0, symSize: 0x28 }
  - { offset: 0x81B4, size: 0x8, addend: 0x0, symName: __ZN9__gnu_cxxneIPK8LocationSt6vectorIS1_SaIS1_EEEEbRKNS_17__normal_iteratorIT_T0_EESC_, symObjAddr: 0x3500, symBinAddr: 0x10000729C, symSize: 0x44 }
  - { offset: 0x81FE, size: 0x8, addend: 0x0, symName: __ZSt16__do_uninit_copyIPK8LocationPS0_ET0_T_S5_S4_, symObjAddr: 0x346C, symBinAddr: 0x100007208, symSize: 0x94 }
  - { offset: 0x8278, size: 0x8, addend: 0x0, symName: __ZSt10_ConstructI8LocationJRS0_EEvPT_DpOT0_, symObjAddr: 0x33F0, symBinAddr: 0x10000718C, symSize: 0x7C }
  - { offset: 0x82C0, size: 0x8, addend: 0x0, symName: __ZNSt11__copy_moveILb0ELb0ESt26random_access_iterator_tagE8__copy_mIP8LocationS4_EET0_T_S6_S5_, symObjAddr: 0x3368, symBinAddr: 0x100007104, symSize: 0x88 }
  - { offset: 0x8349, size: 0x8, addend: 0x0, symName: __ZNSt11__copy_moveILb0ELb0ESt26random_access_iterator_tagE8__copy_mIPK8LocationPS3_EET0_T_S8_S7_, symObjAddr: 0x32E0, symBinAddr: 0x10000707C, symSize: 0x88 }
  - { offset: 0x83D2, size: 0x8, addend: 0x0, symName: __ZSt16__do_uninit_copyIN9__gnu_cxx17__normal_iteratorIPK8LocationSt6vectorIS2_SaIS2_EEEEPS2_ET0_T_SB_SA_, symObjAddr: 0x3238, symBinAddr: 0x100006FD4, symSize: 0xA8 }
  - { offset: 0x8438, size: 0x8, addend: 0x0, symName: __ZNSt20__uninitialized_copyILb0EE13__uninit_copyIPK8LocationPS2_EET0_T_S7_S6_, symObjAddr: 0x320C, symBinAddr: 0x100006FA8, symSize: 0x2C }
  - { offset: 0x8495, size: 0x8, addend: 0x0, symName: __ZSt3minImERKT_S2_S2_, symObjAddr: 0x31D4, symBinAddr: 0x100006F70, symSize: 0x38 }
  - { offset: 0x84E8, size: 0x8, addend: 0x0, symName: __ZSt16__do_uninit_copyIP8LocationS1_ET0_T_S3_S2_, symObjAddr: 0x3140, symBinAddr: 0x100006EDC, symSize: 0x94 }
  - { offset: 0x854E, size: 0x8, addend: 0x0, symName: __ZSt14__copy_move_a2ILb0EP8LocationS1_ET1_T0_S3_S2_, symObjAddr: 0x3114, symBinAddr: 0x100006EB0, symSize: 0x2C }
  - { offset: 0x85B6, size: 0x8, addend: 0x0, symName: __ZN9__gnu_cxx17__normal_iteratorIP8LocationSt6vectorIS1_SaIS1_EEEppEv, symObjAddr: 0x30EC, symBinAddr: 0x100006E88, symSize: 0x28 }
  - { offset: 0x85E0, size: 0x8, addend: 0x0, symName: __ZN9__gnu_cxxneIP8LocationSt6vectorIS1_SaIS1_EEEEbRKNS_17__normal_iteratorIT_T0_EESB_, symObjAddr: 0x30A8, symBinAddr: 0x100006E44, symSize: 0x44 }
  - { offset: 0x862E, size: 0x8, addend: 0x0, symName: __ZNK9__gnu_cxx17__normal_iteratorIP8LocationSt6vectorIS1_SaIS1_EEEplEl, symObjAddr: 0x3054, symBinAddr: 0x100006DF0, symSize: 0x54 }
  - { offset: 0x8662, size: 0x8, addend: 0x0, symName: __ZSt14__copy_move_a2ILb0EPK8LocationPS0_ET1_T0_S5_S4_, symObjAddr: 0x3028, symBinAddr: 0x100006DC4, symSize: 0x2C }
  - { offset: 0x86C6, size: 0x8, addend: 0x0, symName: __ZSt8_DestroyI8LocationEvPT_, symObjAddr: 0x3008, symBinAddr: 0x100006DA4, symSize: 0x20 }
  - { offset: 0x86F6, size: 0x8, addend: 0x0, symName: __ZSt11__addressofI8LocationEPT_RS1_, symObjAddr: 0x2FF4, symBinAddr: 0x100006D90, symSize: 0x14 }
  - { offset: 0x8726, size: 0x8, addend: 0x0, symName: __ZNSt20__uninitialized_copyILb0EE13__uninit_copyIN9__gnu_cxx17__normal_iteratorIPK8LocationSt6vectorIS4_SaIS4_EEEEPS4_EET0_T_SD_SC_, symObjAddr: 0x2FC8, symBinAddr: 0x100006D64, symSize: 0x2C }
  - { offset: 0x877D, size: 0x8, addend: 0x0, symName: __ZSt18uninitialized_copyIPK8LocationPS0_ET0_T_S5_S4_, symObjAddr: 0x2F94, symBinAddr: 0x100006D30, symSize: 0x34 }
  - { offset: 0x87F6, size: 0x8, addend: 0x0, symName: __ZNSt15__new_allocatorI8LocationE8allocateEmPKv, symObjAddr: 0x2EF4, symBinAddr: 0x100006C90, symSize: 0xA0 }
  - { offset: 0x8875, size: 0x8, addend: 0x0, symName: __ZNSt6vectorI8LocationSaIS0_EE11_S_max_sizeERKS1_, symObjAddr: 0x2E90, symBinAddr: 0x100006C2C, symSize: 0x64 }
  - { offset: 0x892B, size: 0x8, addend: 0x0, symName: __ZNK9__gnu_cxx17__normal_iteratorIP8LocationSt6vectorIS1_SaIS1_EEEdeEv, symObjAddr: 0x2E78, symBinAddr: 0x100006C14, symSize: 0x18 }
  - { offset: 0x8953, size: 0x8, addend: 0x0, symName: __ZNK9__gnu_cxx17__normal_iteratorIP8LocationSt6vectorIS1_SaIS1_EEEmiEl, symObjAddr: 0x2E20, symBinAddr: 0x100006BBC, symSize: 0x58 }
  - { offset: 0x89C6, size: 0x8, addend: 0x0, symName: __ZNSt20__uninitialized_copyILb0EE13__uninit_copyIP8LocationS3_EET0_T_S5_S4_, symObjAddr: 0x2DF4, symBinAddr: 0x100006B90, symSize: 0x2C }
  - { offset: 0x8A1D, size: 0x8, addend: 0x0, symName: __ZSt12__niter_wrapIP8LocationET_RKS2_S2_, symObjAddr: 0x2DDC, symBinAddr: 0x100006B78, symSize: 0x18 }
  - { offset: 0x8A56, size: 0x8, addend: 0x0, symName: __ZSt14__copy_move_a1ILb0EP8LocationS1_ET1_T0_S3_S2_, symObjAddr: 0x2DB0, symBinAddr: 0x100006B4C, symSize: 0x2C }
  - { offset: 0x8ABA, size: 0x8, addend: 0x0, symName: __ZSt12__niter_baseIP8LocationET_S2_, symObjAddr: 0x2D9C, symBinAddr: 0x100006B38, symSize: 0x14 }
  - { offset: 0x8AEB, size: 0x8, addend: 0x0, symName: __ZNSt12_Destroy_auxILb0EE9__destroyIN9__gnu_cxx17__normal_iteratorIP8LocationSt6vectorIS4_SaIS4_EEEEEEvT_SA_, symObjAddr: 0x2D48, symBinAddr: 0x100006AE4, symSize: 0x54 }
  - { offset: 0x8B2A, size: 0x8, addend: 0x0, symName: __ZSt12__niter_wrapIN9__gnu_cxx17__normal_iteratorIP8LocationSt6vectorIS2_SaIS2_EEEES3_ET_S8_T0_, symObjAddr: 0x2CEC, symBinAddr: 0x100006A88, symSize: 0x5C }
  - { offset: 0x8B74, size: 0x8, addend: 0x0, symName: __ZSt14__copy_move_a1ILb0EPK8LocationPS0_ET1_T0_S5_S4_, symObjAddr: 0x2CC0, symBinAddr: 0x100006A5C, symSize: 0x2C }
  - { offset: 0x8BD8, size: 0x8, addend: 0x0, symName: __ZSt12__niter_baseIP8LocationSt6vectorIS0_SaIS0_EEET_N9__gnu_cxx17__normal_iteratorIS5_T0_EE, symObjAddr: 0x2CA0, symBinAddr: 0x100006A3C, symSize: 0x20 }
  - { offset: 0x8C12, size: 0x8, addend: 0x0, symName: __ZSt12__niter_baseIPK8LocationSt6vectorIS0_SaIS0_EEET_N9__gnu_cxx17__normal_iteratorIS6_T0_EE, symObjAddr: 0x2C80, symBinAddr: 0x100006A1C, symSize: 0x20 }
  - { offset: 0x8C4C, size: 0x8, addend: 0x0, symName: __ZNSt12_Destroy_auxILb0EE9__destroyIP8LocationEEvT_S4_, symObjAddr: 0x2C34, symBinAddr: 0x1000069D0, symSize: 0x4C }
  - { offset: 0x8C8B, size: 0x8, addend: 0x0, symName: __ZSt18uninitialized_copyIN9__gnu_cxx17__normal_iteratorIPK8LocationSt6vectorIS2_SaIS2_EEEEPS2_ET0_T_SB_SA_, symObjAddr: 0x2C00, symBinAddr: 0x10000699C, symSize: 0x34 }
  - { offset: 0x8D00, size: 0x8, addend: 0x0, symName: __ZSt22__uninitialized_copy_aIPK8LocationPS0_S0_ET0_T_S5_S4_RSaIT1_E, symObjAddr: 0x2BD0, symBinAddr: 0x10000696C, symSize: 0x30 }
  - { offset: 0x8D6B, size: 0x8, addend: 0x0, symName: __ZSt32__make_move_if_noexcept_iteratorI8LocationPKS0_ET0_PT_, symObjAddr: 0x2BBC, symBinAddr: 0x100006958, symSize: 0x14 }
  - { offset: 0x8DA9, size: 0x8, addend: 0x0, symName: __ZNSt15__new_allocatorI8LocationE10deallocateEPS0_m, symObjAddr: 0x2B78, symBinAddr: 0x100006914, symSize: 0x44 }
  - { offset: 0x8E10, size: 0x8, addend: 0x0, symName: __ZNK9__gnu_cxx17__normal_iteratorIP8LocationSt6vectorIS1_SaIS1_EEE4baseEv, symObjAddr: 0x2B64, symBinAddr: 0x100006900, symSize: 0x14 }
  - { offset: 0x8E34, size: 0x8, addend: 0x0, symName: __ZSt3maxImERKT_S2_S2_, symObjAddr: 0x2B2C, symBinAddr: 0x1000068C8, symSize: 0x38 }
  - { offset: 0x8E79, size: 0x8, addend: 0x0, symName: __ZNKSt6vectorI8LocationSaIS0_EE8max_sizeEv, symObjAddr: 0x2B0C, symBinAddr: 0x1000068A8, symSize: 0x20 }
  - { offset: 0x8ED0, size: 0x8, addend: 0x0, symName: __ZNSt6vectorI8LocationSaIS0_EE4backEv, symObjAddr: 0x2AD4, symBinAddr: 0x100006870, symSize: 0x38 }
  - { offset: 0x8EF8, size: 0x8, addend: 0x0, symName: __ZNSt6vectorI8LocationSaIS0_EE17_M_realloc_appendIJS0_EEEvDpOT_, symObjAddr: 0x2834, symBinAddr: 0x1000065D0, symSize: 0x2A0 }
  - { offset: 0x906E, size: 0x8, addend: 0x0, symName: __ZZNSt6vectorI8LocationSaIS0_EE17_M_realloc_appendIJS0_EEEvDpOT_EN6_GuardC1EPS0_mRS1_, symObjAddr: 0x2700, symBinAddr: 0x10000649C, symSize: 0x44 }
  - { offset: 0x90B3, size: 0x8, addend: 0x0, symName: __ZZNSt6vectorI8LocationSaIS0_EE17_M_realloc_appendIJS0_EEEvDpOT_EN6_GuardD1Ev, symObjAddr: 0x2744, symBinAddr: 0x1000064E0, symSize: 0x60 }
  - { offset: 0x926D, size: 0x8, addend: 0x0, symName: __ZZNSt6vectorI8LocationSaIS0_EE17_M_realloc_appendIJS0_EEEvDpOT_EN11_Guard_eltsC1EPS0_RS1_, symObjAddr: 0x27A4, symBinAddr: 0x100006540, symSize: 0x44 }
  - { offset: 0x92A9, size: 0x8, addend: 0x0, symName: __ZZNSt6vectorI8LocationSaIS0_EE17_M_realloc_appendIJS0_EEEvDpOT_EN11_Guard_eltsD1Ev, symObjAddr: 0x27E8, symBinAddr: 0x100006584, symSize: 0x4C }
  - { offset: 0x9349, size: 0x8, addend: 0x0, symName: __ZSt7forwardI8LocationEOT_RNSt16remove_referenceIS1_E4typeE, symObjAddr: 0x26EC, symBinAddr: 0x100006488, symSize: 0x14 }
  - { offset: 0x938D, size: 0x8, addend: 0x0, symName: __ZSt18uninitialized_copyIP8LocationS1_ET0_T_S3_S2_, symObjAddr: 0x26B8, symBinAddr: 0x100006454, symSize: 0x34 }
  - { offset: 0x9402, size: 0x8, addend: 0x0, symName: __ZSt13__copy_move_aILb0EP8LocationS1_ET1_T0_S3_S2_, symObjAddr: 0x2658, symBinAddr: 0x1000063F4, symSize: 0x60 }
  - { offset: 0x9466, size: 0x8, addend: 0x0, symName: __ZSt12__miter_baseIP8LocationET_S2_, symObjAddr: 0x2644, symBinAddr: 0x1000063E0, symSize: 0x14 }
  - { offset: 0x9497, size: 0x8, addend: 0x0, symName: __ZSt8_DestroyIN9__gnu_cxx17__normal_iteratorIP8LocationSt6vectorIS2_SaIS2_EEEEEvT_S8_, symObjAddr: 0x261C, symBinAddr: 0x1000063B8, symSize: 0x28 }
  - { offset: 0x94D6, size: 0x8, addend: 0x0, symName: __ZSt13__copy_move_aILb0EN9__gnu_cxx17__normal_iteratorIPK8LocationSt6vectorIS2_SaIS2_EEEENS1_IPS2_S7_EEET1_T0_SC_SB_, symObjAddr: 0x25BC, symBinAddr: 0x100006358, symSize: 0x60 }
  - { offset: 0x953A, size: 0x8, addend: 0x0, symName: __ZSt12__miter_baseIN9__gnu_cxx17__normal_iteratorIPK8LocationSt6vectorIS2_SaIS2_EEEEET_S9_, symObjAddr: 0x25A8, symBinAddr: 0x100006344, symSize: 0x14 }
  - { offset: 0x9595, size: 0x8, addend: 0x0, symName: __ZN9__gnu_cxx17__normal_iteratorIP8LocationSt6vectorIS1_SaIS1_EEEC1ERKS2_, symObjAddr: 0x2580, symBinAddr: 0x10000631C, symSize: 0x28 }
  - { offset: 0x95BF, size: 0x8, addend: 0x0, symName: __ZSt8_DestroyIP8LocationEvT_S2_, symObjAddr: 0x2558, symBinAddr: 0x1000062F4, symSize: 0x28 }
  - { offset: 0x95FE, size: 0x8, addend: 0x0, symName: __ZSt22__uninitialized_copy_aIN9__gnu_cxx17__normal_iteratorIPK8LocationSt6vectorIS2_SaIS2_EEEEPS2_S2_ET0_T_SB_SA_RSaIT1_E, symObjAddr: 0x2528, symBinAddr: 0x1000062C4, symSize: 0x30 }
  - { offset: 0x966D, size: 0x8, addend: 0x0, symName: __ZNSt6vectorI8LocationSaIS0_EE15_M_erase_at_endEPS0_, symObjAddr: 0x248C, symBinAddr: 0x100006228, symSize: 0x9C }
  - { offset: 0x9723, size: 0x8, addend: 0x0, symName: __ZSt34__uninitialized_move_if_noexcept_aIP8LocationS1_SaIS0_EET0_T_S4_S3_RT1_, symObjAddr: 0x243C, symBinAddr: 0x1000061D8, symSize: 0x50 }
  - { offset: 0x9796, size: 0x8, addend: 0x0, symName: __ZSt12__to_addressI8LocationEPT_S2_, symObjAddr: 0x2428, symBinAddr: 0x1000061C4, symSize: 0x14 }
  - { offset: 0x97F8, size: 0x8, addend: 0x0, symName: __ZNSt12_Vector_baseI8LocationSaIS0_EE11_M_allocateEm, symObjAddr: 0x23D8, symBinAddr: 0x100006174, symSize: 0x50 }
  - { offset: 0x9859, size: 0x8, addend: 0x0, symName: __ZN9__gnu_cxxmiIP8LocationSt6vectorIS1_SaIS1_EEEENS_17__normal_iteratorIT_T0_E15difference_typeERKS9_SC_, symObjAddr: 0x2384, symBinAddr: 0x100006120, symSize: 0x54 }
  - { offset: 0x98A7, size: 0x8, addend: 0x0, symName: __ZNKSt6vectorI8LocationSaIS0_EE12_M_check_lenEmPKc, symObjAddr: 0x22B4, symBinAddr: 0x100006050, symSize: 0xD0 }
  - { offset: 0x9940, size: 0x8, addend: 0x0, symName: __ZSt7forwardIRK8LocationEOT_RNSt16remove_referenceIS3_E4typeE, symObjAddr: 0x22A0, symBinAddr: 0x10000603C, symSize: 0x14 }
  - { offset: 0x9974, size: 0x8, addend: 0x0, symName: __ZNK9__gnu_cxx17__normal_iteratorIPK8LocationSt6vectorIS1_SaIS1_EEE4baseEv, symObjAddr: 0x228C, symBinAddr: 0x100006028, symSize: 0x14 }
  - { offset: 0x99C2, size: 0x8, addend: 0x0, symName: __ZN9__gnu_cxx17__normal_iteratorIPK8LocationSt6vectorIS1_SaIS1_EEEC1ERKS3_, symObjAddr: 0x2264, symBinAddr: 0x100006000, symSize: 0x28 }
  - { offset: 0x9A1A, size: 0x8, addend: 0x0, symName: __ZNSt6vectorI8LocationSaIS0_EE12emplace_backIJS0_EEERS0_DpOT_, symObjAddr: 0x2158, symBinAddr: 0x100005EF4, symSize: 0x10C }
  - { offset: 0x9ABF, size: 0x8, addend: 0x0, symName: __ZSt4moveIR8LocationEONSt16remove_referenceIT_E4typeEOS3_, symObjAddr: 0x2144, symBinAddr: 0x100005EE0, symSize: 0x14 }
  - { offset: 0x9B15, size: 0x8, addend: 0x0, symName: __ZNSt15__new_allocatorI8LocationED2Ev, symObjAddr: 0x2130, symBinAddr: 0x100005ECC, symSize: 0x14 }
  - { offset: 0x9B53, size: 0x8, addend: 0x0, symName: __ZNSt12_Vector_baseI8LocationSaIS0_EE17_Vector_impl_dataC2Ev, symObjAddr: 0x2104, symBinAddr: 0x100005EA0, symSize: 0x2C }
  - { offset: 0x9B88, size: 0x8, addend: 0x0, symName: __ZSt22__uninitialized_copy_aIP8LocationS1_S0_ET0_T_S3_S2_RSaIT1_E, symObjAddr: 0x20D4, symBinAddr: 0x100005E70, symSize: 0x30 }
  - { offset: 0x9BF3, size: 0x8, addend: 0x0, symName: __ZSt4copyIP8LocationS1_ET0_T_S3_S2_, symObjAddr: 0x208C, symBinAddr: 0x100005E28, symSize: 0x48 }
  - { offset: 0x9C89, size: 0x8, addend: 0x0, symName: __ZNSt6vectorI8LocationSaIS0_EE3endEv, symObjAddr: 0x2064, symBinAddr: 0x100005E00, symSize: 0x28 }
  - { offset: 0x9CAD, size: 0x8, addend: 0x0, symName: __ZSt4copyIN9__gnu_cxx17__normal_iteratorIPK8LocationSt6vectorIS2_SaIS2_EEEENS1_IPS2_S7_EEET0_T_SC_SB_, symObjAddr: 0x201C, symBinAddr: 0x100005DB8, symSize: 0x48 }
  - { offset: 0x9D0B, size: 0x8, addend: 0x0, symName: __ZNSt6vectorI8LocationSaIS0_EE5beginEv, symObjAddr: 0x1FF8, symBinAddr: 0x100005D94, symSize: 0x24 }
  - { offset: 0x9D6B, size: 0x8, addend: 0x0, symName: __ZNSt6vectorI8LocationSaIS0_EE20_M_allocate_and_copyIN9__gnu_cxx17__normal_iteratorIPKS0_S2_EEEEPS0_mT_SA_, symObjAddr: 0x1F74, symBinAddr: 0x100005D10, symSize: 0x84 }
  - { offset: 0x9DDC, size: 0x8, addend: 0x0, symName: __ZNKSt6vectorI8LocationSaIS0_EE8capacityEv, symObjAddr: 0x1F38, symBinAddr: 0x100005CD4, symSize: 0x3C }
  - { offset: 0x9E2E, size: 0x8, addend: 0x0, symName: __ZNSt12_Vector_baseI8LocationSaIS0_EE13_M_deallocateEPS0_m, symObjAddr: 0x1EE0, symBinAddr: 0x100005C7C, symSize: 0x58 }
  - { offset: 0x9EAC, size: 0x8, addend: 0x0, symName: __ZNSt6vectorI8LocationSaIS0_EE5clearEv, symObjAddr: 0x1EB4, symBinAddr: 0x100005C50, symSize: 0x2C }
  - { offset: 0x9EE5, size: 0x8, addend: 0x0, symName: __ZNKSt12_Vector_baseI8LocationSaIS0_EE19_M_get_Tp_allocatorEv, symObjAddr: 0x1EA0, symBinAddr: 0x100005C3C, symSize: 0x14 }
  - { offset: 0x9F0D, size: 0x8, addend: 0x0, symName: __ZNSt12_Vector_baseI8LocationSaIS0_EE19_M_get_Tp_allocatorEv, symObjAddr: 0x1E8C, symBinAddr: 0x100005C28, symSize: 0x14 }
  - { offset: 0x9F5F, size: 0x8, addend: 0x0, symName: __ZNSt6vectorI8LocationSaIS0_EE17_M_realloc_appendIJRKS0_EEEvDpOT_, symObjAddr: 0x1BEC, symBinAddr: 0x100005988, symSize: 0x2A0 }
  - { offset: 0xA0D5, size: 0x8, addend: 0x0, symName: __ZZNSt6vectorI8LocationSaIS0_EE17_M_realloc_appendIJRKS0_EEEvDpOT_EN6_GuardC1EPS0_mRS1_, symObjAddr: 0x1AB8, symBinAddr: 0x100005854, symSize: 0x44 }
  - { offset: 0xA11A, size: 0x8, addend: 0x0, symName: __ZZNSt6vectorI8LocationSaIS0_EE17_M_realloc_appendIJRKS0_EEEvDpOT_EN6_GuardD1Ev, symObjAddr: 0x1AFC, symBinAddr: 0x100005898, symSize: 0x60 }
  - { offset: 0xA2D4, size: 0x8, addend: 0x0, symName: __ZZNSt6vectorI8LocationSaIS0_EE17_M_realloc_appendIJRKS0_EEEvDpOT_EN11_Guard_eltsC1EPS0_RS1_, symObjAddr: 0x1B5C, symBinAddr: 0x1000058F8, symSize: 0x44 }
  - { offset: 0xA310, size: 0x8, addend: 0x0, symName: __ZZNSt6vectorI8LocationSaIS0_EE17_M_realloc_appendIJRKS0_EEEvDpOT_EN11_Guard_eltsD1Ev, symObjAddr: 0x1BA0, symBinAddr: 0x10000593C, symSize: 0x4C }
  - { offset: 0xA3AA, size: 0x8, addend: 0x0, symName: __ZN9__gnu_cxxeqIPK8LocationSt6vectorIS1_SaIS1_EEEEbRKNS_17__normal_iteratorIT_T0_EESC_, symObjAddr: 0x1A74, symBinAddr: 0x100005810, symSize: 0x44 }
  - { offset: 0xA3F8, size: 0x8, addend: 0x0, symName: __ZNKSt6vectorI8LocationSaIS0_EE3endEv, symObjAddr: 0x1A4C, symBinAddr: 0x1000057E8, symSize: 0x28 }
  - { offset: 0xA420, size: 0x8, addend: 0x0, symName: __ZNKSt6vectorI8LocationSaIS0_EE5beginEv, symObjAddr: 0x1A28, symBinAddr: 0x1000057C4, symSize: 0x24 }
  - { offset: 0xA448, size: 0x8, addend: 0x0, symName: __ZNSt7__cxx1112basic_stringIcSt11char_traitsIcESaIcEE12_M_constructIPKcEEvT_S8_St20forward_iterator_tag, symObjAddr: 0x1928, symBinAddr: 0x1000056C4, symSize: 0x100 }
  - { offset: 0xA548, size: 0x8, addend: 0x0, symName: __ZZNSt7__cxx1112basic_stringIcSt11char_traitsIcESaIcEE12_M_constructIPKcEEvT_S8_St20forward_iterator_tagEN6_GuardC1EPS4_, symObjAddr: 0x18D0, symBinAddr: 0x10000566C, symSize: 0x24 }
  - { offset: 0xA57B, size: 0x8, addend: 0x0, symName: __ZZNSt7__cxx1112basic_stringIcSt11char_traitsIcESaIcEE12_M_constructIPKcEEvT_S8_St20forward_iterator_tagEN6_GuardD1Ev, symObjAddr: 0x18F4, symBinAddr: 0x100005690, symSize: 0x34 }
  - { offset: 0xA673, size: 0x8, addend: 0x0, symName: __ZNSt15__new_allocatorIcED2Ev, symObjAddr: 0x18BC, symBinAddr: 0x100005658, symSize: 0x14 }
  - { offset: 0xA6D1, size: 0x8, addend: 0x0, symName: __ZN9__gnu_cxx11char_traitsIcE2eqERKcS3_, symObjAddr: 0x188C, symBinAddr: 0x100005628, symSize: 0x30 }
  - { offset: 0xA70B, size: 0x8, addend: 0x0, symName: __ZNSt6vectorI8LocationSaIS0_EE9push_backEOS0_, symObjAddr: 0x185C, symBinAddr: 0x1000055F8, symSize: 0x30 }
  - { offset: 0xA765, size: 0x8, addend: 0x0, symName: __ZNSt6vectorI8LocationSaIS0_EED1Ev, symObjAddr: 0x1800, symBinAddr: 0x10000559C, symSize: 0x5C }
  - { offset: 0xA7E2, size: 0x8, addend: 0x0, symName: __ZNSt12_Vector_baseI8LocationSaIS0_EED2Ev, symObjAddr: 0x179C, symBinAddr: 0x100005538, symSize: 0x64 }
  - { offset: 0xA83D, size: 0x8, addend: 0x0, symName: __ZNSt12_Vector_baseI8LocationSaIS0_EE12_Vector_implC1Ev, symObjAddr: 0x1764, symBinAddr: 0x100005500, symSize: 0x38 }
  - { offset: 0xA8A6, size: 0x8, addend: 0x0, symName: __ZNSt6vectorI8LocationSaIS0_EEaSERKS2_, symObjAddr: 0x139C, symBinAddr: 0x100005138, symSize: 0x3C8 }
  - { offset: 0xAA1F, size: 0x8, addend: 0x0, symName: __ZSt11__addressofIKSt6vectorI8LocationSaIS1_EEEPT_RS5_, symObjAddr: 0x1388, symBinAddr: 0x100005124, symSize: 0x14 }
  - { offset: 0xAA53, size: 0x8, addend: 0x0, symName: __ZNSt6vectorI8LocationSaIS0_EE8pop_backEv, symObjAddr: 0x1328, symBinAddr: 0x1000050C4, symSize: 0x60 }
  - { offset: 0xAB18, size: 0x8, addend: 0x0, symName: __ZNSt7__cxx1112basic_stringIcSt11char_traitsIcESaIcEEC1IS3_EEPKcRKS3_, symObjAddr: 0x128C, symBinAddr: 0x100005028, symSize: 0x9C }
  - { offset: 0xAB7C, size: 0x8, addend: 0x0, symName: __ZNSt6vectorI8LocationSaIS0_EE9push_backERKS0_, symObjAddr: 0x1190, symBinAddr: 0x100004F2C, symSize: 0xFC }
  - { offset: 0xAC18, size: 0x8, addend: 0x0, symName: __ZNSt6vectorI8LocationSaIS0_EEixEm, symObjAddr: 0x1154, symBinAddr: 0x100004EF0, symSize: 0x3C }
  - { offset: 0xAC50, size: 0x8, addend: 0x0, symName: __ZNKSt6vectorI8LocationSaIS0_EE5emptyEv, symObjAddr: 0x111C, symBinAddr: 0x100004EB8, symSize: 0x38 }
  - { offset: 0xAC78, size: 0x8, addend: 0x0, symName: __ZNKSt6vectorI8LocationSaIS0_EE4sizeEv, symObjAddr: 0x10E0, symBinAddr: 0x100004E7C, symSize: 0x3C }
  - { offset: 0xACF7, size: 0x8, addend: 0x0, symName: __ZNSt7__cxx1112basic_stringIcSt11char_traitsIcESaIcEE12_Alloc_hiderD1Ev, symObjAddr: 0x10B4, symBinAddr: 0x100004E50, symSize: 0x2C }
  - { offset: 0xAD3A, size: 0x8, addend: 0x0, symName: __ZN9__gnu_cxx11char_traitsIcE6lengthEPKc, symObjAddr: 0x105C, symBinAddr: 0x100004DF8, symSize: 0x58 }
  - { offset: 0xAD78, size: 0x8, addend: 0x0, symName: __ZN7MinHeap9printHeapEv, symObjAddr: 0xF74, symBinAddr: 0x100004D10, symSize: 0xE8 }
  - { offset: 0xADBA, size: 0x8, addend: 0x0, symName: __ZN7MinHeap7getTopKEi, symObjAddr: 0xE70, symBinAddr: 0x100004C0C, symSize: 0x104 }
  - { offset: 0xAE4E, size: 0x8, addend: 0x0, symName: __ZN7MinHeapD1Ev, symObjAddr: 0xE50, symBinAddr: 0x100004BEC, symSize: 0x20 }
  - { offset: 0xAE90, size: 0x8, addend: 0x0, symName: __ZN7MinHeapC1Ev, symObjAddr: 0xE30, symBinAddr: 0x100004BCC, symSize: 0x20 }
  - { offset: 0xAECE, size: 0x8, addend: 0x0, symName: __ZNSt6vectorI8LocationSaIS0_EEC1Ev, symObjAddr: 0xE10, symBinAddr: 0x100004BAC, symSize: 0x20 }
  - { offset: 0xAF0C, size: 0x8, addend: 0x0, symName: __ZNSt12_Vector_baseI8LocationSaIS0_EEC2Ev, symObjAddr: 0xDF0, symBinAddr: 0x100004B8C, symSize: 0x20 }
  - { offset: 0xAF57, size: 0x8, addend: 0x0, symName: __ZNSt12_Vector_baseI8LocationSaIS0_EE12_Vector_implD1Ev, symObjAddr: 0xDC4, symBinAddr: 0x100004B60, symSize: 0x2C }
  - { offset: 0xAFA2, size: 0x8, addend: 0x0, symName: __ZN7MinHeap9buildHeapERSt6vectorI8LocationSaIS1_EE, symObjAddr: 0xD5C, symBinAddr: 0x100004AF8, symSize: 0x68 }
  - { offset: 0xAFFE, size: 0x8, addend: 0x0, symName: __ZN7MinHeap10extractMinEv, symObjAddr: 0x770, symBinAddr: 0x10000450C, symSize: 0x5EC }
  - { offset: 0xB648, size: 0x8, addend: 0x0, symName: __ZN7MinHeap6insertE8Location, symObjAddr: 0x730, symBinAddr: 0x1000044CC, symSize: 0x40 }
  - { offset: 0xB684, size: 0x8, addend: 0x0, symName: __ZN7MinHeap11heapifyDownEi, symObjAddr: 0x550, symBinAddr: 0x1000042EC, symSize: 0x1E0 }
  - { offset: 0xB71B, size: 0x8, addend: 0x0, symName: __ZN7MinHeap9heapifyUpEi, symObjAddr: 0x444, symBinAddr: 0x1000041E0, symSize: 0x10C }
  - { offset: 0xB7A7, size: 0x8, addend: 0x0, symName: __ZN8LocationD1Ev, symObjAddr: 0x3A0, symBinAddr: 0x10000413C, symSize: 0xA4 }
  - { offset: 0xB7EE, size: 0x8, addend: 0x0, symName: __ZN8LocationC1ERKS_, symObjAddr: 0xF0, symBinAddr: 0x100003E8C, symSize: 0x2B0 }
  - { offset: 0xB81C, size: 0x8, addend: 0x0, symName: __ZNK7MinHeap7isEmptyEv, symObjAddr: 0xD4, symBinAddr: 0x100003E70, symSize: 0x1C }
  - { offset: 0xB844, size: 0x8, addend: 0x0, symName: __ZN7MinHeap10rightChildEi, symObjAddr: 0xB4, symBinAddr: 0x100003E50, symSize: 0x20 }
  - { offset: 0xB87B, size: 0x8, addend: 0x0, symName: __ZN7MinHeap9leftChildEi, symObjAddr: 0x94, symBinAddr: 0x100003E30, symSize: 0x20 }
  - { offset: 0xB8B2, size: 0x8, addend: 0x0, symName: __ZN7MinHeap6parentEi, symObjAddr: 0x6C, symBinAddr: 0x100003E08, symSize: 0x28 }
  - { offset: 0xB8E5, size: 0x8, addend: 0x0, symName: __ZNSt11char_traitsIcE6lengthEPKc, symObjAddr: 0x30, symBinAddr: 0x100003DCC, symSize: 0x3C }
  - { offset: 0xB92F, size: 0x8, addend: 0x0, symName: __ZdlPvS_, symObjAddr: 0x18, symBinAddr: 0x100003DB4, symSize: 0x18 }
  - { offset: 0xB963, size: 0x8, addend: 0x0, symName: __ZnwmPv, symObjAddr: 0x0, symBinAddr: 0x100003D9C, symSize: 0x18 }
  - { offset: 0x105DE, size: 0x8, addend: 0x0, symName: __ZStL8__ioinit, symObjAddr: 0x2C2D8, symBinAddr: 0x100018001, symSize: 0x0 }
  - { offset: 0x109CE, size: 0x8, addend: 0x0, symName: __ZL12EARTH_RADIUS, symObjAddr: 0x300, symBinAddr: 0x10000EB00, symSize: 0x0 }
  - { offset: 0x10BBA, size: 0x8, addend: 0x0, symName: __Z23calculate_all_distancesRSt6vectorI8LocationSaIS0_EEdd, symObjAddr: 0x208, symBinAddr: 0x100007608, symSize: 0x80 }
  - { offset: 0x10C28, size: 0x8, addend: 0x0, symName: __Z27calculate_location_distanceR8Locationdd, symObjAddr: 0x1A0, symBinAddr: 0x1000075A0, symSize: 0x68 }
  - { offset: 0x10C97, size: 0x8, addend: 0x0, symName: __Z18calculate_distancedddd, symObjAddr: 0x3C, symBinAddr: 0x10000743C, symSize: 0x164 }
  - { offset: 0x10D83, size: 0x8, addend: 0x0, symName: __Z10to_radiansd, symObjAddr: 0x0, symBinAddr: 0x100007400, symSize: 0x3C }
  - { offset: 0x14BB9, size: 0x8, addend: 0x0, symName: __ZStL8__ioinit, symObjAddr: 0x1AB1C, symBinAddr: 0x100018002, symSize: 0x0 }
  - { offset: 0x150B9, size: 0x8, addend: 0x0, symName: __ZStneIcSt11char_traitsIcESaIcEEbRKNSt7__cxx1112basic_stringIT_T0_T1_EEPKS5_, symObjAddr: 0x13F8, symBinAddr: 0x100008A3C, symSize: 0x2C }
  - { offset: 0x1510C, size: 0x8, addend: 0x0, symName: __ZSteqIcSt11char_traitsIcESaIcEEbRKNSt7__cxx1112basic_stringIT_T0_T1_EEPKS5_, symObjAddr: 0x1384, symBinAddr: 0x1000089C8, symSize: 0x74 }
  - { offset: 0x15167, size: 0x8, addend: 0x0, symName: __ZN8LocationaSERKS_, symObjAddr: 0x11B8, symBinAddr: 0x100008854, symSize: 0x174 }
  - { offset: 0x151BB, size: 0x8, addend: 0x0, symName: __ZN8LocationC1Ev, symObjAddr: 0xF20, symBinAddr: 0x1000085BC, symSize: 0x298 }
  - { offset: 0x151E5, size: 0x8, addend: 0x0, symName: __ZN8LocationC2Ev, symObjAddr: 0xC88, symBinAddr: 0x100008324, symSize: 0x298 }
  - { offset: 0x15311, size: 0x8, addend: 0x0, symName: __ZN8LocationC1ENSt7__cxx1112basic_stringIcSt11char_traitsIcESaIcEEES5_iS5_S5_iS5_iS5_iS5_S5_S5_S5_S5_S5_ff, symObjAddr: 0xA14, symBinAddr: 0x1000080B0, symSize: 0x274 }
  - { offset: 0x153EA, size: 0x8, addend: 0x0, symName: __ZN8LocationC2ENSt7__cxx1112basic_stringIcSt11char_traitsIcESaIcEEES5_iS5_S5_iS5_iS5_iS5_S5_S5_S5_S5_S5_ff, symObjAddr: 0x7A0, symBinAddr: 0x100007E3C, symSize: 0x274 }
  - { offset: 0x154C2, size: 0x8, addend: 0x0, symName: __ZN8Location8describeEv, symObjAddr: 0x4B0, symBinAddr: 0x100007B4C, symSize: 0x2F0 }
  - { offset: 0x15516, size: 0x8, addend: 0x0, symName: __ZN8Location13get_longitudeEv, symObjAddr: 0x494, symBinAddr: 0x100007B30, symSize: 0x1C }
  - { offset: 0x15542, size: 0x8, addend: 0x0, symName: __ZN8Location12get_latitudeEv, symObjAddr: 0x478, symBinAddr: 0x100007B14, symSize: 0x1C }
  - { offset: 0x1556E, size: 0x8, addend: 0x0, symName: __ZN8Location7get_zipB5cxx11Ev, symObjAddr: 0x440, symBinAddr: 0x100007ADC, symSize: 0x38 }
  - { offset: 0x1559A, size: 0x8, addend: 0x0, symName: __ZN8Location16get_original_zipB5cxx11Ev, symObjAddr: 0x408, symBinAddr: 0x100007AA4, symSize: 0x38 }
  - { offset: 0x155C6, size: 0x8, addend: 0x0, symName: __ZN8Location9get_stateB5cxx11Ev, symObjAddr: 0x3D0, symBinAddr: 0x100007A6C, symSize: 0x38 }
  - { offset: 0x155F2, size: 0x8, addend: 0x0, symName: __ZN8Location11get_addressB5cxx11Ev, symObjAddr: 0x398, symBinAddr: 0x100007A34, symSize: 0x38 }
  - { offset: 0x1561D, size: 0x8, addend: 0x0, symName: __ZN8Location10get_countyB5cxx11Ev, symObjAddr: 0x360, symBinAddr: 0x1000079FC, symSize: 0x38 }
  - { offset: 0x15649, size: 0x8, addend: 0x0, symName: __ZN8Location8get_cityB5cxx11Ev, symObjAddr: 0x328, symBinAddr: 0x1000079C4, symSize: 0x38 }
  - { offset: 0x15675, size: 0x8, addend: 0x0, symName: __ZN8Location8get_ansiEv, symObjAddr: 0x310, symBinAddr: 0x1000079AC, symSize: 0x18 }
  - { offset: 0x156A1, size: 0x8, addend: 0x0, symName: __ZN8Location17get_accessibilityB5cxx11Ev, symObjAddr: 0x2D8, symBinAddr: 0x100007974, symSize: 0x38 }
  - { offset: 0x156CD, size: 0x8, addend: 0x0, symName: __ZN8Location13get_region_idEv, symObjAddr: 0x2C0, symBinAddr: 0x10000795C, symSize: 0x18 }
  - { offset: 0x156F9, size: 0x8, addend: 0x0, symName: __ZN8Location6get_idB5cxx11Ev, symObjAddr: 0x288, symBinAddr: 0x100007924, symSize: 0x38 }
  - { offset: 0x15725, size: 0x8, addend: 0x0, symName: __ZN8Location12get_districtEv, symObjAddr: 0x270, symBinAddr: 0x10000790C, symSize: 0x18 }
  - { offset: 0x15751, size: 0x8, addend: 0x0, symName: __ZN8Location17get_building_typeB5cxx11Ev, symObjAddr: 0x238, symBinAddr: 0x1000078D4, symSize: 0x38 }
  - { offset: 0x1577D, size: 0x8, addend: 0x0, symName: __ZN8Location9is_activeEv, symObjAddr: 0x1F4, symBinAddr: 0x100007890, symSize: 0x44 }
  - { offset: 0x157A9, size: 0x8, addend: 0x0, symName: __ZN8Location18get_parking_spacesEv, symObjAddr: 0x1DC, symBinAddr: 0x100007878, symSize: 0x18 }
  - { offset: 0x157D5, size: 0x8, addend: 0x0, symName: __ZN8Location8is_ownedEv, symObjAddr: 0x198, symBinAddr: 0x100007834, symSize: 0x44 }
  - { offset: 0x15801, size: 0x8, addend: 0x0, symName: __ZN8Location8get_dateB5cxx11Ev, symObjAddr: 0x164, symBinAddr: 0x100007800, symSize: 0x34 }
  - { offset: 0x15825, size: 0x8, addend: 0x0, symName: __ZNSt11char_traitsIcE7compareEPKcS2_m, symObjAddr: 0x38, symBinAddr: 0x100007710, symSize: 0xF0 }
  - { offset: 0x158A9, size: 0x8, addend: 0x0, symName: __ZNSt11char_traitsIcE2ltERKcS2_, symObjAddr: 0x0, symBinAddr: 0x1000076D8, symSize: 0x38 }
  - { offset: 0x1FAAB, size: 0x8, addend: 0x0, symName: __ZStL8__ioinit, symObjAddr: 0x590B8, symBinAddr: 0x100018003, symSize: 0x0 }
  - { offset: 0x1FF36, size: 0x8, addend: 0x0, symName: __ZL12EARTH_RADIUS, symObjAddr: 0x5268, symBinAddr: 0x10000EB28, symSize: 0x0 }
  - { offset: 0x20751, size: 0x8, addend: 0x0, symName: __ZNSt10_Head_baseILm0ERKNSt7__cxx1112basic_stringIcSt11char_traitsIcESaIcEEELb0EE7_M_headERS8_, symObjAddr: 0x5248, symBinAddr: 0x10000C5EC, symSize: 0x18 }
  - { offset: 0x20778, size: 0x8, addend: 0x0, symName: __ZNSt11_Tuple_implILm0EJRKNSt7__cxx1112basic_stringIcSt11char_traitsIcESaIcEEEEE7_M_headERS8_, symObjAddr: 0x522C, symBinAddr: 0x10000C5D0, symSize: 0x1C }
  - { offset: 0x207A0, size: 0x8, addend: 0x0, symName: __ZSt12__get_helperILm0ERKNSt7__cxx1112basic_stringIcSt11char_traitsIcESaIcEEEJEERT0_RSt11_Tuple_implIXT_EJS8_DpT1_EE, symObjAddr: 0x5210, symBinAddr: 0x10000C5B4, symSize: 0x1C }
  - { offset: 0x20810, size: 0x8, addend: 0x0, symName: __ZNSt4pairIffEC1IffLb1EEEv, symObjAddr: 0x51EC, symBinAddr: 0x10000C590, symSize: 0x24 }
  - { offset: 0x20843, size: 0x8, addend: 0x0, symName: __ZSt3getILm0EJRKNSt7__cxx1112basic_stringIcSt11char_traitsIcESaIcEEEEERNSt13tuple_elementIXT_ESt5tupleIJDpT0_EEE4typeERSC_, symObjAddr: 0x51D0, symBinAddr: 0x10000C574, symSize: 0x1C }
  - { offset: 0x208EE, size: 0x8, addend: 0x0, symName: __ZNSt4pairIKNSt7__cxx1112basic_stringIcSt11char_traitsIcESaIcEEES_IffEEC1IJRS6_EJLm0EEJEJEEERSt5tupleIJDpT_EERSB_IJDpT1_EESt12_Index_tupleIJXspT0_EEESK_IJXspT2_EEE, symObjAddr: 0x5178, symBinAddr: 0x10000C51C, symSize: 0x58 }
  - { offset: 0x209AD, size: 0x8, addend: 0x0, symName: __ZNSt4pairIKNSt7__cxx1112basic_stringIcSt11char_traitsIcESaIcEEES_IffEEC1IJRS6_EJEEESt21piecewise_construct_tSt5tupleIJDpT_EESC_IJDpT0_EE, symObjAddr: 0x513C, symBinAddr: 0x10000C4E0, symSize: 0x3C }
  - { offset: 0x20A25, size: 0x8, addend: 0x0, symName: __ZNSt11_Tuple_implILm0EJRKNSt7__cxx1112basic_stringIcSt11char_traitsIcESaIcEEEEEC2EOS8_, symObjAddr: 0x5114, symBinAddr: 0x10000C4B8, symSize: 0x28 }
  - { offset: 0x20ABE, size: 0x8, addend: 0x0, symName: __ZSt7forwardINSt7__cxx1112basic_stringIcSt11char_traitsIcESaIcEEEEOT_RNSt16remove_referenceIS6_E4typeE, symObjAddr: 0x5100, symBinAddr: 0x10000C4A4, symSize: 0x14 }
  - { offset: 0x20AF7, size: 0x8, addend: 0x0, symName: __ZNK9__gnu_cxx16__aligned_membufISt4pairIKNSt7__cxx1112basic_stringIcSt11char_traitsIcESaIcEEES1_IffEEE7_M_addrEv, symObjAddr: 0x50EC, symBinAddr: 0x10000C490, symSize: 0x14 }
  - { offset: 0x20B9C, size: 0x8, addend: 0x0, symName: __ZNSt5tupleIJRKNSt7__cxx1112basic_stringIcSt11char_traitsIcESaIcEEEEEC1EOS8_, symObjAddr: 0x50C4, symBinAddr: 0x10000C468, symSize: 0x28 }
  - { offset: 0x20BCA, size: 0x8, addend: 0x0, symName: __ZNSt15__new_allocatorISt13_Rb_tree_nodeISt4pairIKNSt7__cxx1112basic_stringIcSt11char_traitsIcESaIcEEES1_IffEEEE8allocateEmPKv, symObjAddr: 0x502C, symBinAddr: 0x10000C3D0, symSize: 0x98 }
  - { offset: 0x20CCC, size: 0x8, addend: 0x0, symName: __ZNK9__gnu_cxx16__aligned_membufISt4pairIKNSt7__cxx1112basic_stringIcSt11char_traitsIcESaIcEEES1_IffEEE6_M_ptrEv, symObjAddr: 0x4E7C, symBinAddr: 0x10000C3B4, symSize: 0x1C }
  - { offset: 0x20CFC, size: 0x8, addend: 0x0, symName: __ZSt7forwardIRPSt13_Rb_tree_nodeISt4pairIKNSt7__cxx1112basic_stringIcSt11char_traitsIcESaIcEEES1_IffEEEEOT_RNSt16remove_referenceISE_E4typeE, symObjAddr: 0x4E68, symBinAddr: 0x10000C3A0, symSize: 0x14 }
  - { offset: 0x20DA6, size: 0x8, addend: 0x0, symName: __ZNSt15__new_allocatorISt13_Rb_tree_nodeISt4pairIKNSt7__cxx1112basic_stringIcSt11char_traitsIcESaIcEEES1_IffEEEE10deallocateEPSB_m, symObjAddr: 0x4E2C, symBinAddr: 0x10000C364, symSize: 0x3C }
  - { offset: 0x20E3D, size: 0x8, addend: 0x0, symName: __ZNSt4pairIKNSt7__cxx1112basic_stringIcSt11char_traitsIcESaIcEEES_IffEED1Ev, symObjAddr: 0x4E0C, symBinAddr: 0x10000C344, symSize: 0x20 }
  - { offset: 0x20E5E, size: 0x8, addend: 0x0, symName: __ZSt19__relocate_object_aINSt7__cxx1112basic_stringIcSt11char_traitsIcESaIcEEES5_SaIS5_EEvPT_PT0_RT1_, symObjAddr: 0x4D10, symBinAddr: 0x10000C274, symSize: 0xD0 }
  - { offset: 0x20FA4, size: 0x8, addend: 0x0, symName: __ZNKSt10_Select1stISt4pairIKNSt7__cxx1112basic_stringIcSt11char_traitsIcESaIcEEES0_IffEEEclERKS9_, symObjAddr: 0x4C50, symBinAddr: 0x10000C25C, symSize: 0x18 }
  - { offset: 0x20FDC, size: 0x8, addend: 0x0, symName: __ZNKSt13_Rb_tree_nodeISt4pairIKNSt7__cxx1112basic_stringIcSt11char_traitsIcESaIcEEES0_IffEEE9_M_valptrEv, symObjAddr: 0x4C30, symBinAddr: 0x10000C23C, symSize: 0x20 }
  - { offset: 0x21006, size: 0x8, addend: 0x0, symName: __ZSt7forwardIRPSt18_Rb_tree_node_baseEOT_RNSt16remove_referenceIS3_E4typeE, symObjAddr: 0x4C1C, symBinAddr: 0x10000C228, symSize: 0x14 }
  - { offset: 0x2107F, size: 0x8, addend: 0x0, symName: __ZNSt4pairIPSt18_Rb_tree_node_baseS1_EC1IRPSt13_Rb_tree_nodeIS_IKNSt7__cxx1112basic_stringIcSt11char_traitsIcESaIcEEES_IffEEERS1_Lb1EEEOT_OT0_, symObjAddr: 0x4BD4, symBinAddr: 0x10000C1E0, symSize: 0x48 }
  - { offset: 0x210C8, size: 0x8, addend: 0x0, symName: __ZNSt8_Rb_treeINSt7__cxx1112basic_stringIcSt11char_traitsIcESaIcEEESt4pairIKS5_S6_IffEESt10_Select1stIS9_ESt4lessIS5_ESaIS9_EE5beginEv, symObjAddr: 0x4BAC, symBinAddr: 0x10000C1B8, symSize: 0x28 }
  - { offset: 0x210F0, size: 0x8, addend: 0x0, symName: __ZNSt8_Rb_treeINSt7__cxx1112basic_stringIcSt11char_traitsIcESaIcEEESt4pairIKS5_S6_IffEESt10_Select1stIS9_ESt4lessIS5_ESaIS9_EE17_M_construct_nodeIJRKSt21piecewise_construct_tSt5tupleIJRS7_EESK_IJEEEEEvPSt13_Rb_tree_nodeIS9_EDpOT_, symObjAddr: 0x4A30, symBinAddr: 0x10000C03C, symSize: 0x17C }
  - { offset: 0x211EB, size: 0x8, addend: 0x0, symName: __ZNSt8_Rb_treeINSt7__cxx1112basic_stringIcSt11char_traitsIcESaIcEEESt4pairIKS5_S6_IffEESt10_Select1stIS9_ESt4lessIS5_ESaIS9_EE11_M_get_nodeEv, symObjAddr: 0x49F4, symBinAddr: 0x10000C000, symSize: 0x3C }
  - { offset: 0x21245, size: 0x8, addend: 0x0, symName: __ZN9__gnu_cxx16__aligned_membufISt4pairIKNSt7__cxx1112basic_stringIcSt11char_traitsIcESaIcEEES1_IffEEE7_M_addrEv, symObjAddr: 0x49E0, symBinAddr: 0x10000BFEC, symSize: 0x14 }
  - { offset: 0x212C5, size: 0x8, addend: 0x0, symName: __ZNSt8_Rb_treeINSt7__cxx1112basic_stringIcSt11char_traitsIcESaIcEEESt4pairIKS5_S6_IffEESt10_Select1stIS9_ESt4lessIS5_ESaIS9_EE21_M_get_Node_allocatorEv, symObjAddr: 0x49CC, symBinAddr: 0x10000BFD8, symSize: 0x14 }
  - { offset: 0x212E9, size: 0x8, addend: 0x0, symName: __ZSt14__relocate_a_1IPNSt7__cxx1112basic_stringIcSt11char_traitsIcESaIcEEES6_SaIS5_EET0_T_S9_S8_RT1_, symObjAddr: 0x4810, symBinAddr: 0x10000BF54, symSize: 0x84 }
  - { offset: 0x2136C, size: 0x8, addend: 0x0, symName: __ZSt12__niter_baseIPNSt7__cxx1112basic_stringIcSt11char_traitsIcESaIcEEEET_S7_, symObjAddr: 0x47FC, symBinAddr: 0x10000BF40, symSize: 0x14 }
  - { offset: 0x213A1, size: 0x8, addend: 0x0, symName: __ZNSt15__new_allocatorINSt7__cxx1112basic_stringIcSt11char_traitsIcESaIcEEEE8allocateEmPKv, symObjAddr: 0x4780, symBinAddr: 0x10000BEC4, symSize: 0x7C }
  - { offset: 0x21424, size: 0x8, addend: 0x0, symName: __ZNKSt12_Vector_baseINSt7__cxx1112basic_stringIcSt11char_traitsIcESaIcEEESaIS5_EE19_M_get_Tp_allocatorEv, symObjAddr: 0x476C, symBinAddr: 0x10000BEB0, symSize: 0x14 }
  - { offset: 0x21448, size: 0x8, addend: 0x0, symName: __ZNSt6vectorINSt7__cxx1112basic_stringIcSt11char_traitsIcESaIcEEESaIS5_EE11_S_max_sizeERKS6_, symObjAddr: 0x4718, symBinAddr: 0x10000BE5C, symSize: 0x54 }
  - { offset: 0x214FA, size: 0x8, addend: 0x0, symName: __ZSt8_DestroyINSt7__cxx1112basic_stringIcSt11char_traitsIcESaIcEEEEvPT_, symObjAddr: 0x46F8, symBinAddr: 0x10000BE3C, symSize: 0x20 }
  - { offset: 0x2152A, size: 0x8, addend: 0x0, symName: __ZSt11__addressofINSt7__cxx1112basic_stringIcSt11char_traitsIcESaIcEEEEPT_RS6_, symObjAddr: 0x46E4, symBinAddr: 0x10000BE28, symSize: 0x14 }
  - { offset: 0x21560, size: 0x8, addend: 0x0, symName: __ZSt4moveIRSaI8LocationEEONSt16remove_referenceIT_E4typeEOS4_, symObjAddr: 0x469C, symBinAddr: 0x10000BE14, symSize: 0x14 }
  - { offset: 0x21594, size: 0x8, addend: 0x0, symName: __ZNSt12_Vector_baseI8LocationSaIS0_EE17_Vector_impl_data12_M_copy_dataERKS3_, symObjAddr: 0x4654, symBinAddr: 0x10000BDCC, symSize: 0x48 }
  - { offset: 0x215F1, size: 0x8, addend: 0x0, symName: __ZNSt12_Vector_baseI8LocationSaIS0_EEC2ERKS1_, symObjAddr: 0x462C, symBinAddr: 0x10000BDA4, symSize: 0x28 }
  - { offset: 0x2161F, size: 0x8, addend: 0x0, symName: __ZNSt8_Rb_treeINSt7__cxx1112basic_stringIcSt11char_traitsIcESaIcEEESt4pairIKS5_S6_IffEESt10_Select1stIS9_ESt4lessIS5_ESaIS9_EE14_M_insert_nodeEPSt18_Rb_tree_node_baseSH_PSt13_Rb_tree_nodeIS9_E, symObjAddr: 0x4530, symBinAddr: 0x10000BCD4, symSize: 0xD0 }
  - { offset: 0x21683, size: 0x8, addend: 0x0, symName: __ZNSt8_Rb_treeINSt7__cxx1112basic_stringIcSt11char_traitsIcESaIcEEESt4pairIKS5_S6_IffEESt10_Select1stIS9_ESt4lessIS5_ESaIS9_EE6_S_keyEPKSt13_Rb_tree_nodeIS9_E, symObjAddr: 0x4508, symBinAddr: 0x10000BCAC, symSize: 0x28 }
  - { offset: 0x216AF, size: 0x8, addend: 0x0, symName: __ZNSt17_Rb_tree_iteratorISt4pairIKNSt7__cxx1112basic_stringIcSt11char_traitsIcESaIcEEES0_IffEEEppEv, symObjAddr: 0x44D8, symBinAddr: 0x10000BC7C, symSize: 0x30 }
  - { offset: 0x216D7, size: 0x8, addend: 0x0, symName: __ZNSt17_Rb_tree_iteratorISt4pairIKNSt7__cxx1112basic_stringIcSt11char_traitsIcESaIcEEES0_IffEEEmmEv, symObjAddr: 0x44A8, symBinAddr: 0x10000BC4C, symSize: 0x30 }
  - { offset: 0x21744, size: 0x8, addend: 0x0, symName: __ZNSt4pairIPSt18_Rb_tree_node_baseS1_EC1IRS1_S4_Lb1EEEOT_OT0_, symObjAddr: 0x4460, symBinAddr: 0x10000BC04, symSize: 0x48 }
  - { offset: 0x2178D, size: 0x8, addend: 0x0, symName: __ZNSt8_Rb_treeINSt7__cxx1112basic_stringIcSt11char_traitsIcESaIcEEESt4pairIKS5_S6_IffEESt10_Select1stIS9_ESt4lessIS5_ESaIS9_EE11_M_leftmostEv, symObjAddr: 0x4448, symBinAddr: 0x10000BBEC, symSize: 0x18 }
  - { offset: 0x217B5, size: 0x8, addend: 0x0, symName: __ZNSt8_Rb_treeINSt7__cxx1112basic_stringIcSt11char_traitsIcESaIcEEESt4pairIKS5_S6_IffEESt10_Select1stIS9_ESt4lessIS5_ESaIS9_EE24_M_get_insert_unique_posERS7_, symObjAddr: 0x42F0, symBinAddr: 0x10000BA94, symSize: 0x158 }
  - { offset: 0x21877, size: 0x8, addend: 0x0, symName: __ZNSt4pairIPSt18_Rb_tree_node_baseS1_EC1IS1_S1_Lb1EEERKS1_S5_, symObjAddr: 0x42B4, symBinAddr: 0x10000BA58, symSize: 0x3C }
  - { offset: 0x218BC, size: 0x8, addend: 0x0, symName: __ZNSt8_Rb_treeINSt7__cxx1112basic_stringIcSt11char_traitsIcESaIcEEESt4pairIKS5_S6_IffEESt10_Select1stIS9_ESt4lessIS5_ESaIS9_EE6_S_keyEPKSt18_Rb_tree_node_base, symObjAddr: 0x4298, symBinAddr: 0x10000BA3C, symSize: 0x1C }
  - { offset: 0x218E8, size: 0x8, addend: 0x0, symName: __ZNSt8_Rb_treeINSt7__cxx1112basic_stringIcSt11char_traitsIcESaIcEEESt4pairIKS5_S6_IffEESt10_Select1stIS9_ESt4lessIS5_ESaIS9_EE12_M_rightmostEv, symObjAddr: 0x4280, symBinAddr: 0x10000BA24, symSize: 0x18 }
  - { offset: 0x21910, size: 0x8, addend: 0x0, symName: __ZNKSt8_Rb_treeINSt7__cxx1112basic_stringIcSt11char_traitsIcESaIcEEESt4pairIKS5_S6_IffEESt10_Select1stIS9_ESt4lessIS5_ESaIS9_EE4sizeEv, symObjAddr: 0x4268, symBinAddr: 0x10000BA0C, symSize: 0x18 }
  - { offset: 0x21938, size: 0x8, addend: 0x0, symName: __ZNKSt23_Rb_tree_const_iteratorISt4pairIKNSt7__cxx1112basic_stringIcSt11char_traitsIcESaIcEEES0_IffEEE13_M_const_castEv, symObjAddr: 0x4240, symBinAddr: 0x10000B9E4, symSize: 0x28 }
  - { offset: 0x21960, size: 0x8, addend: 0x0, symName: __ZNSt8_Rb_treeINSt7__cxx1112basic_stringIcSt11char_traitsIcESaIcEEESt4pairIKS5_S6_IffEESt10_Select1stIS9_ESt4lessIS5_ESaIS9_EE14_M_create_nodeIJRKSt21piecewise_construct_tSt5tupleIJRS7_EESK_IJEEEEEPSt13_Rb_tree_nodeIS9_EDpOT_, symObjAddr: 0x41D0, symBinAddr: 0x10000B974, symSize: 0x70 }
  - { offset: 0x219F2, size: 0x8, addend: 0x0, symName: __ZNSt10_Head_baseILm0ERKNSt7__cxx1112basic_stringIcSt11char_traitsIcESaIcEEELb0EEC2ES7_, symObjAddr: 0x41AC, symBinAddr: 0x10000B950, symSize: 0x24 }
  - { offset: 0x21A20, size: 0x8, addend: 0x0, symName: __ZN9__gnu_cxx16__aligned_membufISt4pairIKNSt7__cxx1112basic_stringIcSt11char_traitsIcESaIcEEES1_IffEEE6_M_ptrEv, symObjAddr: 0x4158, symBinAddr: 0x10000B934, symSize: 0x1C }
  - { offset: 0x21A48, size: 0x8, addend: 0x0, symName: __ZNSt8_Rb_treeINSt7__cxx1112basic_stringIcSt11char_traitsIcESaIcEEESt4pairIKS5_S6_IffEESt10_Select1stIS9_ESt4lessIS5_ESaIS9_EE14_M_lower_boundEPSt13_Rb_tree_nodeIS9_EPSt18_Rb_tree_node_baseRS7_, symObjAddr: 0x40BC, symBinAddr: 0x10000B898, symSize: 0x9C }
  - { offset: 0x21AA0, size: 0x8, addend: 0x0, symName: __ZNSt8_Rb_treeINSt7__cxx1112basic_stringIcSt11char_traitsIcESaIcEEESt4pairIKS5_S6_IffEESt10_Select1stIS9_ESt4lessIS5_ESaIS9_EE6_M_endEv, symObjAddr: 0x40A4, symBinAddr: 0x10000B880, symSize: 0x18 }
  - { offset: 0x21AC8, size: 0x8, addend: 0x0, symName: __ZNSt8_Rb_treeINSt7__cxx1112basic_stringIcSt11char_traitsIcESaIcEEESt4pairIKS5_S6_IffEESt10_Select1stIS9_ESt4lessIS5_ESaIS9_EE11_M_put_nodeEPSt13_Rb_tree_nodeIS9_E, symObjAddr: 0x4058, symBinAddr: 0x10000B834, symSize: 0x4C }
  - { offset: 0x21B36, size: 0x8, addend: 0x0, symName: __ZNSt8_Rb_treeINSt7__cxx1112basic_stringIcSt11char_traitsIcESaIcEEESt4pairIKS5_S6_IffEESt10_Select1stIS9_ESt4lessIS5_ESaIS9_EE15_M_destroy_nodeEPSt13_Rb_tree_nodeIS9_E, symObjAddr: 0x3FF8, symBinAddr: 0x10000B7D4, symSize: 0x60 }
  - { offset: 0x21BC4, size: 0x8, addend: 0x0, symName: __ZSt12__relocate_aIPNSt7__cxx1112basic_stringIcSt11char_traitsIcESaIcEEES6_SaIS5_EET0_T_S9_S8_RT1_, symObjAddr: 0x3EFC, symBinAddr: 0x10000B778, symSize: 0x5C }
  - { offset: 0x21C5C, size: 0x8, addend: 0x0, symName: __ZNK9__gnu_cxx17__normal_iteratorIPNSt7__cxx1112basic_stringIcSt11char_traitsIcESaIcEEESt6vectorIS6_SaIS6_EEE4baseEv, symObjAddr: 0x3EE8, symBinAddr: 0x10000B764, symSize: 0x14 }
  - { offset: 0x21CAA, size: 0x8, addend: 0x0, symName: __ZN9__gnu_cxx17__normal_iteratorIPNSt7__cxx1112basic_stringIcSt11char_traitsIcESaIcEEESt6vectorIS6_SaIS6_EEEC1ERKS7_, symObjAddr: 0x3EC0, symBinAddr: 0x10000B73C, symSize: 0x28 }
  - { offset: 0x21CD8, size: 0x8, addend: 0x0, symName: __ZNKSt6vectorINSt7__cxx1112basic_stringIcSt11char_traitsIcESaIcEEESaIS5_EE4sizeEv, symObjAddr: 0x3E60, symBinAddr: 0x10000B714, symSize: 0x28 }
  - { offset: 0x21D00, size: 0x8, addend: 0x0, symName: __ZNKSt6vectorINSt7__cxx1112basic_stringIcSt11char_traitsIcESaIcEEESaIS5_EE8max_sizeEv, symObjAddr: 0x3E40, symBinAddr: 0x10000B6F4, symSize: 0x20 }
  - { offset: 0x21D24, size: 0x8, addend: 0x0, symName: __ZNSt12_Destroy_auxILb0EE9__destroyIPNSt7__cxx1112basic_stringIcSt11char_traitsIcESaIcEEEEEvT_S9_, symObjAddr: 0x3DF4, symBinAddr: 0x10000B6A8, symSize: 0x4C }
  - { offset: 0x21D67, size: 0x8, addend: 0x0, symName: __ZNSt15__new_allocatorINSt7__cxx1112basic_stringIcSt11char_traitsIcESaIcEEEE10deallocateEPS5_m, symObjAddr: 0x3DC4, symBinAddr: 0x10000B678, symSize: 0x30 }
  - { offset: 0x21DD7, size: 0x8, addend: 0x0, symName: __ZNSt12_Vector_baseI8LocationSaIS0_EE17_Vector_impl_data12_M_swap_dataERS3_, symObjAddr: 0x3CE8, symBinAddr: 0x10000B62C, symSize: 0x4C }
  - { offset: 0x21E43, size: 0x8, addend: 0x0, symName: __ZNSt6vectorI8LocationSaIS0_EEC1ERKS1_, symObjAddr: 0x3CC0, symBinAddr: 0x10000B604, symSize: 0x28 }
  - { offset: 0x21E71, size: 0x8, addend: 0x0, symName: __ZNKSt12_Vector_baseI8LocationSaIS0_EE13get_allocatorEv, symObjAddr: 0x3C70, symBinAddr: 0x10000B5B4, symSize: 0x50 }
  - { offset: 0x21EF1, size: 0x8, addend: 0x0, symName: __ZNSt12_Vector_baseI8LocationSaIS0_EE17_M_create_storageEm, symObjAddr: 0x3BC8, symBinAddr: 0x10000B540, symSize: 0x74 }
  - { offset: 0x21F4F, size: 0x8, addend: 0x0, symName: __ZNSt12_Vector_baseI8LocationSaIS0_EE12_Vector_implC1ERKS1_, symObjAddr: 0x3B7C, symBinAddr: 0x10000B4F4, symSize: 0x4C }
  - { offset: 0x2200D, size: 0x8, addend: 0x0, symName: __ZNSt17_Rb_tree_iteratorISt4pairIKNSt7__cxx1112basic_stringIcSt11char_traitsIcESaIcEEES0_IffEEEC1EPSt18_Rb_tree_node_base, symObjAddr: 0x3B58, symBinAddr: 0x10000B4D0, symSize: 0x24 }
  - { offset: 0x2203B, size: 0x8, addend: 0x0, symName: __ZNSt8_Rb_treeINSt7__cxx1112basic_stringIcSt11char_traitsIcESaIcEEESt4pairIKS5_S6_IffEESt10_Select1stIS9_ESt4lessIS5_ESaIS9_EE10_Auto_node9_M_insertES6_IPSt18_Rb_tree_node_baseSI_E, symObjAddr: 0x3B0C, symBinAddr: 0x10000B484, symSize: 0x4C }
  - { offset: 0x22083, size: 0x8, addend: 0x0, symName: __ZNKSt8_Rb_treeINSt7__cxx1112basic_stringIcSt11char_traitsIcESaIcEEESt4pairIKS5_S6_IffEESt10_Select1stIS9_ESt4lessIS5_ESaIS9_EE10_Auto_node6_M_keyEv, symObjAddr: 0x3AEC, symBinAddr: 0x10000B464, symSize: 0x20 }
  - { offset: 0x220AB, size: 0x8, addend: 0x0, symName: __ZNSt8_Rb_treeINSt7__cxx1112basic_stringIcSt11char_traitsIcESaIcEEESt4pairIKS5_S6_IffEESt10_Select1stIS9_ESt4lessIS5_ESaIS9_EE29_M_get_insert_hint_unique_posESt23_Rb_tree_const_iteratorIS9_ERS7_, symObjAddr: 0x37C8, symBinAddr: 0x10000B140, symSize: 0x324 }
  - { offset: 0x2216F, size: 0x8, addend: 0x0, symName: __ZNSt8_Rb_treeINSt7__cxx1112basic_stringIcSt11char_traitsIcESaIcEEESt4pairIKS5_S6_IffEESt10_Select1stIS9_ESt4lessIS5_ESaIS9_EE10_Auto_nodeD1Ev, symObjAddr: 0x3784, symBinAddr: 0x10000B0FC, symSize: 0x44 }
  - { offset: 0x221E5, size: 0x8, addend: 0x0, symName: __ZNSt8_Rb_treeINSt7__cxx1112basic_stringIcSt11char_traitsIcESaIcEEESt4pairIKS5_S6_IffEESt10_Select1stIS9_ESt4lessIS5_ESaIS9_EE10_Auto_nodeC1IJRKSt21piecewise_construct_tSt5tupleIJRS7_EESL_IJEEEEERSF_DpOT_, symObjAddr: 0x3708, symBinAddr: 0x10000B080, symSize: 0x7C }
  - { offset: 0x2224C, size: 0x8, addend: 0x0, symName: __ZSt7forwardISt5tupleIJEEEOT_RNSt16remove_referenceIS2_E4typeE, symObjAddr: 0x36F4, symBinAddr: 0x10000B06C, symSize: 0x14 }
  - { offset: 0x22282, size: 0x8, addend: 0x0, symName: __ZSt7forwardISt5tupleIJRKNSt7__cxx1112basic_stringIcSt11char_traitsIcESaIcEEEEEEOT_RNSt16remove_referenceISA_E4typeE, symObjAddr: 0x36E0, symBinAddr: 0x10000B058, symSize: 0x14 }
  - { offset: 0x222B8, size: 0x8, addend: 0x0, symName: __ZSt7forwardIRKSt21piecewise_construct_tEOT_RNSt16remove_referenceIS3_E4typeE, symObjAddr: 0x36CC, symBinAddr: 0x10000B044, symSize: 0x14 }
  - { offset: 0x22312, size: 0x8, addend: 0x0, symName: __ZNSt11_Tuple_implILm0EJRKNSt7__cxx1112basic_stringIcSt11char_traitsIcESaIcEEEEEC2ES7_, symObjAddr: 0x36A4, symBinAddr: 0x10000B01C, symSize: 0x28 }
  - { offset: 0x2233C, size: 0x8, addend: 0x0, symName: __ZStltIcSt11char_traitsIcESaIcEEbRKNSt7__cxx1112basic_stringIT_T0_T1_EESA_, symObjAddr: 0x3678, symBinAddr: 0x10000AFF0, symSize: 0x2C }
  - { offset: 0x22393, size: 0x8, addend: 0x0, symName: __ZNSt13_Rb_tree_nodeISt4pairIKNSt7__cxx1112basic_stringIcSt11char_traitsIcESaIcEEES0_IffEEE9_M_valptrEv, symObjAddr: 0x3658, symBinAddr: 0x10000AFD0, symSize: 0x20 }
  - { offset: 0x223BB, size: 0x8, addend: 0x0, symName: __ZNKSt8_Rb_treeINSt7__cxx1112basic_stringIcSt11char_traitsIcESaIcEEESt4pairIKS5_S6_IffEESt10_Select1stIS9_ESt4lessIS5_ESaIS9_EE8key_compEv, symObjAddr: 0x3640, symBinAddr: 0x10000AFB8, symSize: 0x18 }
  - { offset: 0x223E3, size: 0x8, addend: 0x0, symName: __ZNSt8_Rb_treeINSt7__cxx1112basic_stringIcSt11char_traitsIcESaIcEEESt4pairIKS5_S6_IffEESt10_Select1stIS9_ESt4lessIS5_ESaIS9_EE3endEv, symObjAddr: 0x3618, symBinAddr: 0x10000AF90, symSize: 0x28 }
  - { offset: 0x2240B, size: 0x8, addend: 0x0, symName: __ZNSt8_Rb_treeINSt7__cxx1112basic_stringIcSt11char_traitsIcESaIcEEESt4pairIKS5_S6_IffEESt10_Select1stIS9_ESt4lessIS5_ESaIS9_EE11lower_boundERS7_, symObjAddr: 0x35D0, symBinAddr: 0x10000AF48, symSize: 0x48 }
  - { offset: 0x22443, size: 0x8, addend: 0x0, symName: __ZNKSt8_Rb_treeINSt7__cxx1112basic_stringIcSt11char_traitsIcESaIcEEESt4pairIKS5_S6_IffEESt10_Select1stIS9_ESt4lessIS5_ESaIS9_EE9_M_mbeginEv, symObjAddr: 0x35B8, symBinAddr: 0x10000AF30, symSize: 0x18 }
  - { offset: 0x2246B, size: 0x8, addend: 0x0, symName: __ZNSt8_Rb_treeINSt7__cxx1112basic_stringIcSt11char_traitsIcESaIcEEESt4pairIKS5_S6_IffEESt10_Select1stIS9_ESt4lessIS5_ESaIS9_EE12_M_drop_nodeEPSt13_Rb_tree_nodeIS9_E, symObjAddr: 0x3584, symBinAddr: 0x10000AEFC, symSize: 0x34 }
  - { offset: 0x2249F, size: 0x8, addend: 0x0, symName: __ZNSt8_Rb_treeINSt7__cxx1112basic_stringIcSt11char_traitsIcESaIcEEESt4pairIKS5_S6_IffEESt10_Select1stIS9_ESt4lessIS5_ESaIS9_EE7_S_leftEPSt18_Rb_tree_node_base, symObjAddr: 0x356C, symBinAddr: 0x10000AEE4, symSize: 0x18 }
  - { offset: 0x224C7, size: 0x8, addend: 0x0, symName: __ZNSt8_Rb_treeINSt7__cxx1112basic_stringIcSt11char_traitsIcESaIcEEESt4pairIKS5_S6_IffEESt10_Select1stIS9_ESt4lessIS5_ESaIS9_EE8_S_rightEPSt18_Rb_tree_node_base, symObjAddr: 0x3554, symBinAddr: 0x10000AECC, symSize: 0x18 }
  - { offset: 0x22503, size: 0x8, addend: 0x0, symName: __ZNSt6vectorINSt7__cxx1112basic_stringIcSt11char_traitsIcESaIcEEESaIS5_EE11_S_relocateEPS5_S8_S8_RS6_, symObjAddr: 0x32E8, symBinAddr: 0x10000AE98, symSize: 0x34 }
  - { offset: 0x2255B, size: 0x8, addend: 0x0, symName: __ZSt12__to_addressINSt7__cxx1112basic_stringIcSt11char_traitsIcESaIcEEEEPT_S7_, symObjAddr: 0x32D4, symBinAddr: 0x10000AE84, symSize: 0x14 }
  - { offset: 0x2258F, size: 0x8, addend: 0x0, symName: __ZNSt12_Vector_baseINSt7__cxx1112basic_stringIcSt11char_traitsIcESaIcEEESaIS5_EE11_M_allocateEm, symObjAddr: 0x3284, symBinAddr: 0x10000AE34, symSize: 0x50 }
  - { offset: 0x225F6, size: 0x8, addend: 0x0, symName: __ZN9__gnu_cxxmiIPNSt7__cxx1112basic_stringIcSt11char_traitsIcESaIcEEESt6vectorIS6_SaIS6_EEEENS_17__normal_iteratorIT_T0_E15difference_typeERKSE_SH_, symObjAddr: 0x3244, symBinAddr: 0x10000ADF4, symSize: 0x40 }
  - { offset: 0x22644, size: 0x8, addend: 0x0, symName: __ZNSt6vectorINSt7__cxx1112basic_stringIcSt11char_traitsIcESaIcEEESaIS5_EE5beginEv, symObjAddr: 0x3220, symBinAddr: 0x10000ADD0, symSize: 0x24 }
  - { offset: 0x2266C, size: 0x8, addend: 0x0, symName: __ZNSt6vectorINSt7__cxx1112basic_stringIcSt11char_traitsIcESaIcEEESaIS5_EE3endEv, symObjAddr: 0x31F8, symBinAddr: 0x10000ADA8, symSize: 0x28 }
  - { offset: 0x22694, size: 0x8, addend: 0x0, symName: __ZNKSt6vectorINSt7__cxx1112basic_stringIcSt11char_traitsIcESaIcEEESaIS5_EE12_M_check_lenEmPKc, symObjAddr: 0x3128, symBinAddr: 0x10000ACD8, symSize: 0xD0 }
  - { offset: 0x2272D, size: 0x8, addend: 0x0, symName: __ZSt7forwardIRKNSt7__cxx1112basic_stringIcSt11char_traitsIcESaIcEEEEOT_RNSt16remove_referenceIS8_E4typeE, symObjAddr: 0x3114, symBinAddr: 0x10000ACC4, symSize: 0x14 }
  - { offset: 0x2275D, size: 0x8, addend: 0x0, symName: __ZSt8_DestroyIPNSt7__cxx1112basic_stringIcSt11char_traitsIcESaIcEEEEvT_S7_, symObjAddr: 0x30EC, symBinAddr: 0x10000AC9C, symSize: 0x28 }
  - { offset: 0x227FB, size: 0x8, addend: 0x0, symName: __ZNSt6vectorI8LocationSaIS0_EE14_M_move_assignEOS2_St17integral_constantIbLb1EE, symObjAddr: 0x2FF4, symBinAddr: 0x10000AC08, symSize: 0x94 }
  - { offset: 0x2289C, size: 0x8, addend: 0x0, symName: __ZSt4moveIRSt6vectorI8LocationSaIS1_EEEONSt16remove_referenceIT_E4typeEOS6_, symObjAddr: 0x2FE0, symBinAddr: 0x10000ABF4, symSize: 0x14 }
  - { offset: 0x22903, size: 0x8, addend: 0x0, symName: __ZNSt12_Vector_baseI8LocationSaIS0_EEC2EmRKS1_, symObjAddr: 0x2F5C, symBinAddr: 0x10000ABA0, symSize: 0x54 }
  - { offset: 0x22950, size: 0x8, addend: 0x0, symName: __ZSt7forwardIfEOT_RNSt16remove_referenceIS0_E4typeE, symObjAddr: 0x2F34, symBinAddr: 0x10000AB8C, symSize: 0x14 }
  - { offset: 0x22986, size: 0x8, addend: 0x0, symName: __ZSt7forwardIRfEOT_RNSt16remove_referenceIS1_E4typeE, symObjAddr: 0x2F20, symBinAddr: 0x10000AB78, symSize: 0x14 }
  - { offset: 0x229BA, size: 0x8, addend: 0x0, symName: __ZNSt8_Rb_treeINSt7__cxx1112basic_stringIcSt11char_traitsIcESaIcEEESt4pairIKS5_S6_IffEESt10_Select1stIS9_ESt4lessIS5_ESaIS9_EE22_M_emplace_hint_uniqueIJRKSt21piecewise_construct_tSt5tupleIJRS7_EESK_IJEEEEESt17_Rb_tree_iteratorIS9_ESt23_Rb_tree_const_iteratorIS9_EDpOT_, symObjAddr: 0x2E48, symBinAddr: 0x10000AAA0, symSize: 0xD8 }
  - { offset: 0x22A6F, size: 0x8, addend: 0x0, symName: __ZNSt23_Rb_tree_const_iteratorISt4pairIKNSt7__cxx1112basic_stringIcSt11char_traitsIcESaIcEEES0_IffEEEC1ERKSt17_Rb_tree_iteratorIS9_E, symObjAddr: 0x2E20, symBinAddr: 0x10000AA78, symSize: 0x28 }
  - { offset: 0x22ACE, size: 0x8, addend: 0x0, symName: __ZNSt5tupleIJRKNSt7__cxx1112basic_stringIcSt11char_traitsIcESaIcEEEEEC1ILb1ELb1EEES7_, symObjAddr: 0x2DF8, symBinAddr: 0x10000AA50, symSize: 0x28 }
  - { offset: 0x22B07, size: 0x8, addend: 0x0, symName: __ZNKSt4lessINSt7__cxx1112basic_stringIcSt11char_traitsIcESaIcEEEEclERKS5_S8_, symObjAddr: 0x2DD0, symBinAddr: 0x10000AA28, symSize: 0x28 }
  - { offset: 0x22B4F, size: 0x8, addend: 0x0, symName: __ZNKSt17_Rb_tree_iteratorISt4pairIKNSt7__cxx1112basic_stringIcSt11char_traitsIcESaIcEEES0_IffEEEdeEv, symObjAddr: 0x2DB0, symBinAddr: 0x10000AA08, symSize: 0x20 }
  - { offset: 0x22B77, size: 0x8, addend: 0x0, symName: __ZNKSt3mapINSt7__cxx1112basic_stringIcSt11char_traitsIcESaIcEEESt4pairIffESt4lessIS5_ESaIS6_IKS5_S7_EEE8key_compEv, symObjAddr: 0x2D84, symBinAddr: 0x10000A9DC, symSize: 0x2C }
  - { offset: 0x22BA1, size: 0x8, addend: 0x0, symName: __ZSteqRKSt17_Rb_tree_iteratorISt4pairIKNSt7__cxx1112basic_stringIcSt11char_traitsIcESaIcEEES0_IffEEESC_, symObjAddr: 0x2D54, symBinAddr: 0x10000A9AC, symSize: 0x30 }
  - { offset: 0x22BDD, size: 0x8, addend: 0x0, symName: __ZNSt3mapINSt7__cxx1112basic_stringIcSt11char_traitsIcESaIcEEESt4pairIffESt4lessIS5_ESaIS6_IKS5_S7_EEE3endEv, symObjAddr: 0x2D38, symBinAddr: 0x10000A990, symSize: 0x1C }
  - { offset: 0x22C05, size: 0x8, addend: 0x0, symName: __ZNSt3mapINSt7__cxx1112basic_stringIcSt11char_traitsIcESaIcEEESt4pairIffESt4lessIS5_ESaIS6_IKS5_S7_EEE11lower_boundERSA_, symObjAddr: 0x2D14, symBinAddr: 0x10000A96C, symSize: 0x24 }
  - { offset: 0x22C3D, size: 0x8, addend: 0x0, symName: __ZNSt8_Rb_treeINSt7__cxx1112basic_stringIcSt11char_traitsIcESaIcEEESt4pairIKS5_S6_IffEESt10_Select1stIS9_ESt4lessIS5_ESaIS9_EE8_M_beginEv, symObjAddr: 0x2CF8, symBinAddr: 0x10000A950, symSize: 0x1C }
  - { offset: 0x22C65, size: 0x8, addend: 0x0, symName: __ZNSt8_Rb_treeINSt7__cxx1112basic_stringIcSt11char_traitsIcESaIcEEESt4pairIKS5_S6_IffEESt10_Select1stIS9_ESt4lessIS5_ESaIS9_EE8_M_eraseEPSt13_Rb_tree_nodeIS9_E, symObjAddr: 0x2C94, symBinAddr: 0x10000A8EC, symSize: 0x64 }
  - { offset: 0x22CE1, size: 0x8, addend: 0x0, symName: __ZNSt15__new_allocatorISt13_Rb_tree_nodeISt4pairIKNSt7__cxx1112basic_stringIcSt11char_traitsIcESaIcEEES1_IffEEEED2Ev, symObjAddr: 0x2C80, symBinAddr: 0x10000A8D8, symSize: 0x14 }
  - { offset: 0x22D1F, size: 0x8, addend: 0x0, symName: __ZNSt20_Rb_tree_key_compareISt4lessINSt7__cxx1112basic_stringIcSt11char_traitsIcESaIcEEEEEC2Ev, symObjAddr: 0x2C6C, symBinAddr: 0x10000A8C4, symSize: 0x14 }
  - { offset: 0x22D58, size: 0x8, addend: 0x0, symName: __ZNSt6vectorINSt7__cxx1112basic_stringIcSt11char_traitsIcESaIcEEESaIS5_EE17_M_realloc_appendIJRKS5_EEEvDpOT_, symObjAddr: 0x269C, symBinAddr: 0x10000A6C8, symSize: 0x1FC }
  - { offset: 0x22ECE, size: 0x8, addend: 0x0, symName: __ZZNSt6vectorINSt7__cxx1112basic_stringIcSt11char_traitsIcESaIcEEESaIS5_EE17_M_realloc_appendIJRKS5_EEEvDpOT_EN6_GuardC1EPS5_mRS6_, symObjAddr: 0x25F8, symBinAddr: 0x10000A624, symSize: 0x44 }
  - { offset: 0x22F13, size: 0x8, addend: 0x0, symName: __ZZNSt6vectorINSt7__cxx1112basic_stringIcSt11char_traitsIcESaIcEEESaIS5_EE17_M_realloc_appendIJRKS5_EEEvDpOT_EN6_GuardD1Ev, symObjAddr: 0x263C, symBinAddr: 0x10000A668, symSize: 0x60 }
  - { offset: 0x23040, size: 0x8, addend: 0x0, symName: __ZNSt6vectorINSt7__cxx1112basic_stringIcSt11char_traitsIcESaIcEEESaIS5_EE15_M_erase_at_endEPS5_, symObjAddr: 0x2570, symBinAddr: 0x10000A59C, symSize: 0x88 }
  - { offset: 0x23108, size: 0x8, addend: 0x0, symName: __ZNSt12_Vector_baseINSt7__cxx1112basic_stringIcSt11char_traitsIcESaIcEEESaIS5_EE19_M_get_Tp_allocatorEv, symObjAddr: 0x255C, symBinAddr: 0x10000A588, symSize: 0x14 }
  - { offset: 0x23130, size: 0x8, addend: 0x0, symName: __ZNSt12_Vector_baseINSt7__cxx1112basic_stringIcSt11char_traitsIcESaIcEEESaIS5_EE13_M_deallocateEPS5_m, symObjAddr: 0x2504, symBinAddr: 0x10000A530, symSize: 0x58 }
  - { offset: 0x231D0, size: 0x8, addend: 0x0, symName: __ZNSt15__new_allocatorINSt7__cxx1112basic_stringIcSt11char_traitsIcESaIcEEEED2Ev, symObjAddr: 0x24F0, symBinAddr: 0x10000A51C, symSize: 0x14 }
  - { offset: 0x2320E, size: 0x8, addend: 0x0, symName: __ZNSt12_Vector_baseINSt7__cxx1112basic_stringIcSt11char_traitsIcESaIcEEESaIS5_EE17_Vector_impl_dataC2Ev, symObjAddr: 0x24C4, symBinAddr: 0x10000A4F0, symSize: 0x2C }
  - { offset: 0x23281, size: 0x8, addend: 0x0, symName: __ZNSt12_Vector_baseI8LocationSaIS0_EE17_Vector_impl_dataC1Ev, symObjAddr: 0x2418, symBinAddr: 0x10000A4C4, symSize: 0x2C }
  - { offset: 0x232A8, size: 0x8, addend: 0x0, symName: __ZSt4moveIRNSt7__cxx1112basic_stringIcSt11char_traitsIcESaIcEEEEONSt16remove_referenceIT_E4typeEOS8_, symObjAddr: 0x238C, symBinAddr: 0x10000A4B0, symSize: 0x14 }
  - { offset: 0x232F0, size: 0x8, addend: 0x0, symName: __ZNSt6vectorI8LocationSaIS0_EEaSEOS2_, symObjAddr: 0x2170, symBinAddr: 0x10000A46C, symSize: 0x44 }
  - { offset: 0x2335F, size: 0x8, addend: 0x0, symName: __ZNSt6vectorI8LocationSaIS0_EEC1ERKS2_, symObjAddr: 0x205C, symBinAddr: 0x10000A358, symSize: 0x114 }
  - { offset: 0x2346F, size: 0x8, addend: 0x0, symName: __ZNSt4pairIffEaSEOS0_, symObjAddr: 0x1F78, symBinAddr: 0x10000A310, symSize: 0x48 }
  - { offset: 0x234EC, size: 0x8, addend: 0x0, symName: __ZNSt4pairIffEC1IRfS2_Lb1EEEOT_OT0_, symObjAddr: 0x1F30, symBinAddr: 0x10000A2C8, symSize: 0x48 }
  - { offset: 0x23535, size: 0x8, addend: 0x0, symName: __ZNSt3mapINSt7__cxx1112basic_stringIcSt11char_traitsIcESaIcEEESt4pairIffESt4lessIS5_ESaIS6_IKS5_S7_EEEixERSA_, symObjAddr: 0x1E44, symBinAddr: 0x10000A1DC, symSize: 0xEC }
  - { offset: 0x2359F, size: 0x8, addend: 0x0, symName: __ZNSt8_Rb_treeINSt7__cxx1112basic_stringIcSt11char_traitsIcESaIcEEESt4pairIKS5_S6_IffEESt10_Select1stIS9_ESt4lessIS5_ESaIS9_EED1Ev, symObjAddr: 0x1E10, symBinAddr: 0x10000A1A8, symSize: 0x34 }
  - { offset: 0x235FA, size: 0x8, addend: 0x0, symName: __ZNSt8_Rb_treeINSt7__cxx1112basic_stringIcSt11char_traitsIcESaIcEEESt4pairIKS5_S6_IffEESt10_Select1stIS9_ESt4lessIS5_ESaIS9_EE13_Rb_tree_implISD_Lb1EEC1Ev, symObjAddr: 0x1DCC, symBinAddr: 0x10000A164, symSize: 0x44 }
  - { offset: 0x23665, size: 0x8, addend: 0x0, symName: __ZNSt6vectorINSt7__cxx1112basic_stringIcSt11char_traitsIcESaIcEEESaIS5_EEixEm, symObjAddr: 0x1CA8, symBinAddr: 0x10000A13C, symSize: 0x28 }
  - { offset: 0x2369D, size: 0x8, addend: 0x0, symName: __ZNSt6vectorINSt7__cxx1112basic_stringIcSt11char_traitsIcESaIcEEESaIS5_EE9push_backERKS5_, symObjAddr: 0x1BAC, symBinAddr: 0x10000A040, symSize: 0xFC }
  - { offset: 0x2374B, size: 0x8, addend: 0x0, symName: __ZNSt6vectorINSt7__cxx1112basic_stringIcSt11char_traitsIcESaIcEEESaIS5_EE5clearEv, symObjAddr: 0x1B80, symBinAddr: 0x10000A014, symSize: 0x2C }
  - { offset: 0x23795, size: 0x8, addend: 0x0, symName: __ZNSt6vectorINSt7__cxx1112basic_stringIcSt11char_traitsIcESaIcEEESaIS5_EED1Ev, symObjAddr: 0x1B24, symBinAddr: 0x100009FB8, symSize: 0x5C }
  - { offset: 0x23812, size: 0x8, addend: 0x0, symName: __ZNSt12_Vector_baseINSt7__cxx1112basic_stringIcSt11char_traitsIcESaIcEEESaIS5_EED2Ev, symObjAddr: 0x1AD4, symBinAddr: 0x100009F68, symSize: 0x50 }
  - { offset: 0x2386D, size: 0x8, addend: 0x0, symName: __ZNSt12_Vector_baseINSt7__cxx1112basic_stringIcSt11char_traitsIcESaIcEEESaIS5_EE12_Vector_implC1Ev, symObjAddr: 0x1A9C, symBinAddr: 0x100009F30, symSize: 0x38 }
  - { offset: 0x23942, size: 0x8, addend: 0x0, symName: __ZN9__gnu_cxx6__stoaIffcJEEET0_PFT_PKT1_PPS3_DpT2_EPKcS5_PmS9_, symObjAddr: 0x1830, symBinAddr: 0x100009E24, symSize: 0x10C }
  - { offset: 0x23A67, size: 0x8, addend: 0x0, symName: __ZZN9__gnu_cxx6__stoaIffcJEEET0_PFT_PKT1_PPS3_DpT2_EPKcS5_PmS9_EN11_Save_errnoC1Ev, symObjAddr: 0x1798, symBinAddr: 0x100009D8C, symSize: 0x30 }
  - { offset: 0x23A91, size: 0x8, addend: 0x0, symName: __ZZN9__gnu_cxx6__stoaIffcJEEET0_PFT_PKT1_PPS3_DpT2_EPKcS5_PmS9_EN11_Save_errnoD1Ev, symObjAddr: 0x17C8, symBinAddr: 0x100009DBC, symSize: 0x50 }
  - { offset: 0x23AD7, size: 0x8, addend: 0x0, symName: __ZZN9__gnu_cxx6__stoaIffcJEEET0_PFT_PKT1_PPS3_DpT2_EPKcS5_PmS9_EN10_Range_chk6_S_chkEfSt17integral_constantIbLb0EE, symObjAddr: 0x1818, symBinAddr: 0x100009E0C, symSize: 0x18 }
  - { offset: 0x23B46, size: 0x8, addend: 0x0, symName: __ZN9__gnu_cxx6__stoaIlicJiEEET0_PFT_PKT1_PPS3_DpT2_EPKcS5_PmS9_, symObjAddr: 0x1694, symBinAddr: 0x100009C88, symSize: 0x104 }
  - { offset: 0x23C79, size: 0x8, addend: 0x0, symName: __ZZN9__gnu_cxx6__stoaIlicJiEEET0_PFT_PKT1_PPS3_DpT2_EPKcS5_PmS9_EN11_Save_errnoC1Ev, symObjAddr: 0x15D4, symBinAddr: 0x100009BC8, symSize: 0x30 }
  - { offset: 0x23CA3, size: 0x8, addend: 0x0, symName: __ZZN9__gnu_cxx6__stoaIlicJiEEET0_PFT_PKT1_PPS3_DpT2_EPKcS5_PmS9_EN11_Save_errnoD1Ev, symObjAddr: 0x1604, symBinAddr: 0x100009BF8, symSize: 0x50 }
  - { offset: 0x23D04, size: 0x8, addend: 0x0, symName: __ZZN9__gnu_cxx6__stoaIlicJiEEET0_PFT_PKT1_PPS3_DpT2_EPKcS5_PmS9_EN10_Range_chk6_S_chkElSt17integral_constantIbLb1EE, symObjAddr: 0x1654, symBinAddr: 0x100009C48, symSize: 0x40 }
  - { offset: 0x23D4C, size: 0x8, addend: 0x0, symName: _main, symObjAddr: 0x10A8, symBinAddr: 0x1000096F4, symSize: 0x4D4 }
  - { offset: 0x23F46, size: 0x8, addend: 0x0, symName: __Z13parse_us_zipsNSt7__cxx1112basic_stringIcSt11char_traitsIcESaIcEEE, symObjAddr: 0xB58, symBinAddr: 0x100009494, symSize: 0x260 }
  - { offset: 0x2402B, size: 0x8, addend: 0x0, symName: __ZNSt3mapINSt7__cxx1112basic_stringIcSt11char_traitsIcESaIcEEESt4pairIffESt4lessIS5_ESaIS6_IKS5_S7_EEED1Ev, symObjAddr: 0xB38, symBinAddr: 0x100009474, symSize: 0x20 }
  - { offset: 0x24069, size: 0x8, addend: 0x0, symName: __ZNSt3mapINSt7__cxx1112basic_stringIcSt11char_traitsIcESaIcEEESt4pairIffESt4lessIS5_ESaIS6_IKS5_S7_EEEC1Ev, symObjAddr: 0xB18, symBinAddr: 0x100009454, symSize: 0x20 }
  - { offset: 0x240A7, size: 0x8, addend: 0x0, symName: __ZNSt8_Rb_treeINSt7__cxx1112basic_stringIcSt11char_traitsIcESaIcEEESt4pairIKS5_S6_IffEESt10_Select1stIS9_ESt4lessIS5_ESaIS9_EEC1Ev, symObjAddr: 0xAF8, symBinAddr: 0x100009434, symSize: 0x20 }
  - { offset: 0x240F3, size: 0x8, addend: 0x0, symName: __ZNSt8_Rb_treeINSt7__cxx1112basic_stringIcSt11char_traitsIcESaIcEEESt4pairIKS5_S6_IffEESt10_Select1stIS9_ESt4lessIS5_ESaIS9_EE13_Rb_tree_implISD_Lb1EED1Ev, symObjAddr: 0xACC, symBinAddr: 0x100009408, symSize: 0x2C }
  - { offset: 0x24144, size: 0x8, addend: 0x0, symName: __Z17parse_real_estateNSt7__cxx1112basic_stringIcSt11char_traitsIcESaIcEEE, symObjAddr: 0x330, symBinAddr: 0x100008C6C, symSize: 0x79C }
  - { offset: 0x24341, size: 0x8, addend: 0x0, symName: __ZNSt16invalid_argumentC1ERKS_, symObjAddr: 0x250, symBinAddr: 0x100008C30, symSize: 0x3C }
  - { offset: 0x24388, size: 0x8, addend: 0x0, symName: __ZNSt6vectorINSt7__cxx1112basic_stringIcSt11char_traitsIcESaIcEEESaIS5_EEC1Ev, symObjAddr: 0x230, symBinAddr: 0x100008C10, symSize: 0x20 }
  - { offset: 0x243C6, size: 0x8, addend: 0x0, symName: __ZNSt12_Vector_baseINSt7__cxx1112basic_stringIcSt11char_traitsIcESaIcEEESaIS5_EEC2Ev, symObjAddr: 0x210, symBinAddr: 0x100008BF0, symSize: 0x20 }
  - { offset: 0x24411, size: 0x8, addend: 0x0, symName: __ZNSt12_Vector_baseINSt7__cxx1112basic_stringIcSt11char_traitsIcESaIcEEESaIS5_EE12_Vector_implD1Ev, symObjAddr: 0x1E4, symBinAddr: 0x100008BC4, symSize: 0x2C }
  - { offset: 0x24458, size: 0x8, addend: 0x0, symName: __ZNSt15_Rb_tree_header8_M_resetEv, symObjAddr: 0x13C, symBinAddr: 0x100008B88, symSize: 0x3C }
  - { offset: 0x24499, size: 0x8, addend: 0x0, symName: __ZNSt15_Rb_tree_headerC2Ev, symObjAddr: 0x114, symBinAddr: 0x100008B60, symSize: 0x28 }
  - { offset: 0x244BA, size: 0x8, addend: 0x0, symName: __ZStorSt13_Ios_OpenmodeS_, symObjAddr: 0xF4, symBinAddr: 0x100008B40, symSize: 0x20 }
  - { offset: 0x244F0, size: 0x8, addend: 0x0, symName: __ZNSt7__cxx114stofERKNS_12basic_stringIcSt11char_traitsIcESaIcEEEPm, symObjAddr: 0xB0, symBinAddr: 0x100008AFC, symSize: 0x44 }
  - { offset: 0x24528, size: 0x8, addend: 0x0, symName: __ZNSt7__cxx114stoiERKNS_12basic_stringIcSt11char_traitsIcESaIcEEEPmi, symObjAddr: 0x6C, symBinAddr: 0x100008AB8, symSize: 0x44 }
  - { offset: 0x296C1, size: 0x8, addend: 0x0, symName: __ZStL8__ioinit, symObjAddr: 0x25F7E, symBinAddr: 0x100018004, symSize: 0x0 }
  - { offset: 0x29AE9, size: 0x8, addend: 0x0, symName: __ZL12EARTH_RADIUS, symObjAddr: 0x1F00, symBinAddr: 0x10000EB38, symSize: 0x0 }
  - { offset: 0x29D31, size: 0x8, addend: 0x0, symName: __ZSt10_ConstructI8LocationJEEvPT_DpOT0_, symObjAddr: 0x1CBC, symBinAddr: 0x10000CEE0, symSize: 0x6C }
  - { offset: 0x29D6C, size: 0x8, addend: 0x0, symName: __ZNSt27__uninitialized_default_n_1ILb0EE18__uninit_default_nIP8LocationmEET_S4_T0_, symObjAddr: 0x19E0, symBinAddr: 0x10000CE58, symSize: 0x88 }
  - { offset: 0x29DC6, size: 0x8, addend: 0x0, symName: __ZSt25__uninitialized_default_nIP8LocationmET_S2_T0_, symObjAddr: 0x1820, symBinAddr: 0x10000CE2C, symSize: 0x2C }
  - { offset: 0x29E3A, size: 0x8, addend: 0x0, symName: __ZSt27__uninitialized_default_n_aIP8LocationmS0_ET_S2_T0_RSaIT1_E, symObjAddr: 0x1254, symBinAddr: 0x10000CE04, symSize: 0x28 }
  - { offset: 0x29EBF, size: 0x8, addend: 0x0, symName: __ZNSt12_Vector_baseI8LocationSaIS0_EE17_Vector_impl_dataC2EOS3_, symObjAddr: 0xC68, symBinAddr: 0x10000CD94, symSize: 0x70 }
  - { offset: 0x29F16, size: 0x8, addend: 0x0, symName: __ZSt4moveIRNSt12_Vector_baseI8LocationSaIS1_EE12_Vector_implEEONSt16remove_referenceIT_E4typeEOS7_, symObjAddr: 0xC54, symBinAddr: 0x10000CD80, symSize: 0x14 }
  - { offset: 0x29F4A, size: 0x8, addend: 0x0, symName: __ZNSt6vectorI8LocationSaIS0_EE21_M_default_initializeEm, symObjAddr: 0xB24, symBinAddr: 0x10000CD30, symSize: 0x50 }
  - { offset: 0x29F7E, size: 0x8, addend: 0x0, symName: __ZNSt6vectorI8LocationSaIS0_EE17_S_check_init_lenEmRKS1_, symObjAddr: 0xA4C, symBinAddr: 0x10000CCAC, symSize: 0x84 }
  - { offset: 0x2A06A, size: 0x8, addend: 0x0, symName: __ZNSt12_Vector_baseI8LocationSaIS0_EE12_Vector_implC1EOS3_, symObjAddr: 0x834, symBinAddr: 0x10000CC40, symSize: 0x6C }
  - { offset: 0x2A121, size: 0x8, addend: 0x0, symName: __ZNSt6vectorI8LocationSaIS0_EEC1EmRKS1_, symObjAddr: 0x620, symBinAddr: 0x10000CBD8, symSize: 0x68 }
  - { offset: 0x2A191, size: 0x8, addend: 0x0, symName: __Z11get_closestSt6vectorI8LocationSaIS0_EEi, symObjAddr: 0x598, symBinAddr: 0x10000CB50, symSize: 0x88 }
  - { offset: 0x2A204, size: 0x8, addend: 0x0, symName: __Z10merge_sortSt6vectorI8LocationSaIS0_EENSt7__cxx1112basic_stringIcSt11char_traitsIcESaIcEEEii, symObjAddr: 0x3F4, symBinAddr: 0x10000C9EC, symSize: 0x164 }
  - { offset: 0x2A296, size: 0x8, addend: 0x0, symName: __ZNSt6vectorI8LocationSaIS0_EEC1EOS2_, symObjAddr: 0x3CC, symBinAddr: 0x10000C9C4, symSize: 0x28 }
  - { offset: 0x2A2E2, size: 0x8, addend: 0x0, symName: __ZNSt12_Vector_baseI8LocationSaIS0_EEC2EOS2_, symObjAddr: 0x3A4, symBinAddr: 0x10000C99C, symSize: 0x28 }
  - { offset: 0x2A314, size: 0x8, addend: 0x0, symName: __Z12merge_helperRSt6vectorI8LocationSaIS0_EEiii, symObjAddr: 0x30, symBinAddr: 0x10000C654, symSize: 0x348 }
...
